
bomb：     文件格式 elf32-i386


Disassembly of section .init:

080486f4 <_init>:
 80486f4:	53                   	push   %ebx
 80486f5:	83 ec 08             	sub    $0x8,%esp
 80486f8:	e8 13 02 00 00       	call   8048910 <__x86.get_pc_thunk.bx>
 80486fd:	81 c3 03 39 00 00    	add    $0x3903,%ebx
 8048703:	8b 83 fc ff ff ff    	mov    -0x4(%ebx),%eax
 8048709:	85 c0                	test   %eax,%eax
 804870b:	74 05                	je     8048712 <_init+0x1e>
 804870d:	e8 be 01 00 00       	call   80488d0 <__sprintf_chk@plt+0x10>
 8048712:	83 c4 08             	add    $0x8,%esp
 8048715:	5b                   	pop    %ebx
 8048716:	c3                   	ret    

Disassembly of section .plt:

08048720 <read@plt-0x10>:
 8048720:	ff 35 04 c0 04 08    	pushl  0x804c004
 8048726:	ff 25 08 c0 04 08    	jmp    *0x804c008
 804872c:	00 00                	add    %al,(%eax)
	...

08048730 <read@plt>:
 8048730:	ff 25 0c c0 04 08    	jmp    *0x804c00c
 8048736:	68 00 00 00 00       	push   $0x0
 804873b:	e9 e0 ff ff ff       	jmp    8048720 <_init+0x2c>

08048740 <fflush@plt>:
 8048740:	ff 25 10 c0 04 08    	jmp    *0x804c010
 8048746:	68 08 00 00 00       	push   $0x8
 804874b:	e9 d0 ff ff ff       	jmp    8048720 <_init+0x2c>

08048750 <fgets@plt>:
 8048750:	ff 25 14 c0 04 08    	jmp    *0x804c014
 8048756:	68 10 00 00 00       	push   $0x10
 804875b:	e9 c0 ff ff ff       	jmp    8048720 <_init+0x2c>

08048760 <signal@plt>:
 8048760:	ff 25 18 c0 04 08    	jmp    *0x804c018
 8048766:	68 18 00 00 00       	push   $0x18
 804876b:	e9 b0 ff ff ff       	jmp    8048720 <_init+0x2c>

08048770 <sleep@plt>:
 8048770:	ff 25 1c c0 04 08    	jmp    *0x804c01c
 8048776:	68 20 00 00 00       	push   $0x20
 804877b:	e9 a0 ff ff ff       	jmp    8048720 <_init+0x2c>

08048780 <alarm@plt>:
 8048780:	ff 25 20 c0 04 08    	jmp    *0x804c020
 8048786:	68 28 00 00 00       	push   $0x28
 804878b:	e9 90 ff ff ff       	jmp    8048720 <_init+0x2c>

08048790 <__stack_chk_fail@plt>:
 8048790:	ff 25 24 c0 04 08    	jmp    *0x804c024
 8048796:	68 30 00 00 00       	push   $0x30
 804879b:	e9 80 ff ff ff       	jmp    8048720 <_init+0x2c>

080487a0 <strcpy@plt>:
 80487a0:	ff 25 28 c0 04 08    	jmp    *0x804c028
 80487a6:	68 38 00 00 00       	push   $0x38
 80487ab:	e9 70 ff ff ff       	jmp    8048720 <_init+0x2c>

080487b0 <getenv@plt>:
 80487b0:	ff 25 2c c0 04 08    	jmp    *0x804c02c
 80487b6:	68 40 00 00 00       	push   $0x40
 80487bb:	e9 60 ff ff ff       	jmp    8048720 <_init+0x2c>

080487c0 <puts@plt>:
 80487c0:	ff 25 30 c0 04 08    	jmp    *0x804c030
 80487c6:	68 48 00 00 00       	push   $0x48
 80487cb:	e9 50 ff ff ff       	jmp    8048720 <_init+0x2c>

080487d0 <__memmove_chk@plt>:
 80487d0:	ff 25 34 c0 04 08    	jmp    *0x804c034
 80487d6:	68 50 00 00 00       	push   $0x50
 80487db:	e9 40 ff ff ff       	jmp    8048720 <_init+0x2c>

080487e0 <exit@plt>:
 80487e0:	ff 25 38 c0 04 08    	jmp    *0x804c038
 80487e6:	68 58 00 00 00       	push   $0x58
 80487eb:	e9 30 ff ff ff       	jmp    8048720 <_init+0x2c>

080487f0 <__libc_start_main@plt>:
 80487f0:	ff 25 3c c0 04 08    	jmp    *0x804c03c
 80487f6:	68 60 00 00 00       	push   $0x60
 80487fb:	e9 20 ff ff ff       	jmp    8048720 <_init+0x2c>

08048800 <write@plt>:
 8048800:	ff 25 40 c0 04 08    	jmp    *0x804c040
 8048806:	68 68 00 00 00       	push   $0x68
 804880b:	e9 10 ff ff ff       	jmp    8048720 <_init+0x2c>

08048810 <__isoc99_sscanf@plt>:
 8048810:	ff 25 44 c0 04 08    	jmp    *0x804c044
 8048816:	68 70 00 00 00       	push   $0x70
 804881b:	e9 00 ff ff ff       	jmp    8048720 <_init+0x2c>

08048820 <fopen@plt>:
 8048820:	ff 25 48 c0 04 08    	jmp    *0x804c048
 8048826:	68 78 00 00 00       	push   $0x78
 804882b:	e9 f0 fe ff ff       	jmp    8048720 <_init+0x2c>

08048830 <__errno_location@plt>:
 8048830:	ff 25 4c c0 04 08    	jmp    *0x804c04c
 8048836:	68 80 00 00 00       	push   $0x80
 804883b:	e9 e0 fe ff ff       	jmp    8048720 <_init+0x2c>

08048840 <__printf_chk@plt>:
 8048840:	ff 25 50 c0 04 08    	jmp    *0x804c050
 8048846:	68 88 00 00 00       	push   $0x88
 804884b:	e9 d0 fe ff ff       	jmp    8048720 <_init+0x2c>

08048850 <socket@plt>:
 8048850:	ff 25 54 c0 04 08    	jmp    *0x804c054
 8048856:	68 90 00 00 00       	push   $0x90
 804885b:	e9 c0 fe ff ff       	jmp    8048720 <_init+0x2c>

08048860 <__fprintf_chk@plt>:
 8048860:	ff 25 58 c0 04 08    	jmp    *0x804c058
 8048866:	68 98 00 00 00       	push   $0x98
 804886b:	e9 b0 fe ff ff       	jmp    8048720 <_init+0x2c>

08048870 <gethostbyname@plt>:
 8048870:	ff 25 5c c0 04 08    	jmp    *0x804c05c
 8048876:	68 a0 00 00 00       	push   $0xa0
 804887b:	e9 a0 fe ff ff       	jmp    8048720 <_init+0x2c>

08048880 <strtol@plt>:
 8048880:	ff 25 60 c0 04 08    	jmp    *0x804c060
 8048886:	68 a8 00 00 00       	push   $0xa8
 804888b:	e9 90 fe ff ff       	jmp    8048720 <_init+0x2c>

08048890 <connect@plt>:
 8048890:	ff 25 64 c0 04 08    	jmp    *0x804c064
 8048896:	68 b0 00 00 00       	push   $0xb0
 804889b:	e9 80 fe ff ff       	jmp    8048720 <_init+0x2c>

080488a0 <close@plt>:
 80488a0:	ff 25 68 c0 04 08    	jmp    *0x804c068
 80488a6:	68 b8 00 00 00       	push   $0xb8
 80488ab:	e9 70 fe ff ff       	jmp    8048720 <_init+0x2c>

080488b0 <__ctype_b_loc@plt>:
 80488b0:	ff 25 6c c0 04 08    	jmp    *0x804c06c
 80488b6:	68 c0 00 00 00       	push   $0xc0
 80488bb:	e9 60 fe ff ff       	jmp    8048720 <_init+0x2c>

080488c0 <__sprintf_chk@plt>:
 80488c0:	ff 25 70 c0 04 08    	jmp    *0x804c070
 80488c6:	68 c8 00 00 00       	push   $0xc8
 80488cb:	e9 50 fe ff ff       	jmp    8048720 <_init+0x2c>

Disassembly of section .plt.got:

080488d0 <.plt.got>:
 80488d0:	ff 25 fc bf 04 08    	jmp    *0x804bffc
 80488d6:	66 90                	xchg   %ax,%ax

Disassembly of section .text:

080488e0 <_start>:
 80488e0:	31 ed                	xor    %ebp,%ebp
 80488e2:	5e                   	pop    %esi
 80488e3:	89 e1                	mov    %esp,%ecx
 80488e5:	83 e4 f0             	and    $0xfffffff0,%esp
 80488e8:	50                   	push   %eax
 80488e9:	54                   	push   %esp
 80488ea:	52                   	push   %edx
 80488eb:	68 80 9e 04 08       	push   $0x8049e80
 80488f0:	68 20 9e 04 08       	push   $0x8049e20
 80488f5:	51                   	push   %ecx
 80488f6:	56                   	push   %esi
 80488f7:	68 db 89 04 08       	push   $0x80489db
 80488fc:	e8 ef fe ff ff       	call   80487f0 <__libc_start_main@plt>
 8048901:	f4                   	hlt    
 8048902:	66 90                	xchg   %ax,%ax
 8048904:	66 90                	xchg   %ax,%ax
 8048906:	66 90                	xchg   %ax,%ax
 8048908:	66 90                	xchg   %ax,%ax
 804890a:	66 90                	xchg   %ax,%ax
 804890c:	66 90                	xchg   %ax,%ax
 804890e:	66 90                	xchg   %ax,%ax

08048910 <__x86.get_pc_thunk.bx>:
 8048910:	8b 1c 24             	mov    (%esp),%ebx
 8048913:	c3                   	ret    
 8048914:	66 90                	xchg   %ax,%ax
 8048916:	66 90                	xchg   %ax,%ax
 8048918:	66 90                	xchg   %ax,%ax
 804891a:	66 90                	xchg   %ax,%ax
 804891c:	66 90                	xchg   %ax,%ax
 804891e:	66 90                	xchg   %ax,%ax

08048920 <deregister_tm_clones>:
 8048920:	b8 a3 c3 04 08       	mov    $0x804c3a3,%eax
 8048925:	2d a0 c3 04 08       	sub    $0x804c3a0,%eax
 804892a:	83 f8 06             	cmp    $0x6,%eax
 804892d:	76 1a                	jbe    8048949 <deregister_tm_clones+0x29>
 804892f:	b8 00 00 00 00       	mov    $0x0,%eax
 8048934:	85 c0                	test   %eax,%eax
 8048936:	74 11                	je     8048949 <deregister_tm_clones+0x29>
 8048938:	55                   	push   %ebp
 8048939:	89 e5                	mov    %esp,%ebp
 804893b:	83 ec 14             	sub    $0x14,%esp
 804893e:	68 a0 c3 04 08       	push   $0x804c3a0
 8048943:	ff d0                	call   *%eax
 8048945:	83 c4 10             	add    $0x10,%esp
 8048948:	c9                   	leave  
 8048949:	f3 c3                	repz ret 
 804894b:	90                   	nop
 804894c:	8d 74 26 00          	lea    0x0(%esi,%eiz,1),%esi

08048950 <register_tm_clones>:
 8048950:	b8 a0 c3 04 08       	mov    $0x804c3a0,%eax
 8048955:	2d a0 c3 04 08       	sub    $0x804c3a0,%eax
 804895a:	c1 f8 02             	sar    $0x2,%eax
 804895d:	89 c2                	mov    %eax,%edx
 804895f:	c1 ea 1f             	shr    $0x1f,%edx
 8048962:	01 d0                	add    %edx,%eax
 8048964:	d1 f8                	sar    %eax
 8048966:	74 1b                	je     8048983 <register_tm_clones+0x33>
 8048968:	ba 00 00 00 00       	mov    $0x0,%edx
 804896d:	85 d2                	test   %edx,%edx
 804896f:	74 12                	je     8048983 <register_tm_clones+0x33>
 8048971:	55                   	push   %ebp
 8048972:	89 e5                	mov    %esp,%ebp
 8048974:	83 ec 10             	sub    $0x10,%esp
 8048977:	50                   	push   %eax
 8048978:	68 a0 c3 04 08       	push   $0x804c3a0
 804897d:	ff d2                	call   *%edx
 804897f:	83 c4 10             	add    $0x10,%esp
 8048982:	c9                   	leave  
 8048983:	f3 c3                	repz ret 
 8048985:	8d 74 26 00          	lea    0x0(%esi,%eiz,1),%esi
 8048989:	8d bc 27 00 00 00 00 	lea    0x0(%edi,%eiz,1),%edi

08048990 <__do_global_dtors_aux>:
 8048990:	80 3d c8 c3 04 08 00 	cmpb   $0x0,0x804c3c8
 8048997:	75 13                	jne    80489ac <__do_global_dtors_aux+0x1c>
 8048999:	55                   	push   %ebp
 804899a:	89 e5                	mov    %esp,%ebp
 804899c:	83 ec 08             	sub    $0x8,%esp
 804899f:	e8 7c ff ff ff       	call   8048920 <deregister_tm_clones>
 80489a4:	c6 05 c8 c3 04 08 01 	movb   $0x1,0x804c3c8
 80489ab:	c9                   	leave  
 80489ac:	f3 c3                	repz ret 
 80489ae:	66 90                	xchg   %ax,%ax

080489b0 <frame_dummy>:
 80489b0:	b8 10 bf 04 08       	mov    $0x804bf10,%eax
 80489b5:	8b 10                	mov    (%eax),%edx
 80489b7:	85 d2                	test   %edx,%edx
 80489b9:	75 05                	jne    80489c0 <frame_dummy+0x10>
 80489bb:	eb 93                	jmp    8048950 <register_tm_clones>
 80489bd:	8d 76 00             	lea    0x0(%esi),%esi
 80489c0:	ba 00 00 00 00       	mov    $0x0,%edx
 80489c5:	85 d2                	test   %edx,%edx
 80489c7:	74 f2                	je     80489bb <frame_dummy+0xb>
 80489c9:	55                   	push   %ebp
 80489ca:	89 e5                	mov    %esp,%ebp
 80489cc:	83 ec 14             	sub    $0x14,%esp
 80489cf:	50                   	push   %eax
 80489d0:	ff d2                	call   *%edx
 80489d2:	83 c4 10             	add    $0x10,%esp
 80489d5:	c9                   	leave  
 80489d6:	e9 75 ff ff ff       	jmp    8048950 <register_tm_clones>

080489db <main>:
 80489db:	8d 4c 24 04          	lea    0x4(%esp),%ecx
 80489df:	83 e4 f0             	and    $0xfffffff0,%esp
 80489e2:	ff 71 fc             	pushl  -0x4(%ecx)
 80489e5:	55                   	push   %ebp
 80489e6:	89 e5                	mov    %esp,%ebp
 80489e8:	53                   	push   %ebx
 80489e9:	51                   	push   %ecx
 80489ea:	8b 01                	mov    (%ecx),%eax
 80489ec:	8b 59 04             	mov    0x4(%ecx),%ebx
 80489ef:	83 f8 01             	cmp    $0x1,%eax
 80489f2:	75 0c                	jne    8048a00 <main+0x25>
 80489f4:	a1 c0 c3 04 08       	mov    0x804c3c0,%eax
 80489f9:	a3 d0 c3 04 08       	mov    %eax,0x804c3d0
 80489fe:	eb 5b                	jmp    8048a5b <main+0x80>
 8048a00:	83 f8 02             	cmp    $0x2,%eax
 8048a03:	75 39                	jne    8048a3e <main+0x63>
 8048a05:	83 ec 08             	sub    $0x8,%esp
 8048a08:	68 a8 9e 04 08       	push   $0x8049ea8
 8048a0d:	ff 73 04             	pushl  0x4(%ebx)
 8048a10:	e8 0b fe ff ff       	call   8048820 <fopen@plt>
 8048a15:	a3 d0 c3 04 08       	mov    %eax,0x804c3d0
 8048a1a:	83 c4 10             	add    $0x10,%esp
 8048a1d:	85 c0                	test   %eax,%eax
 8048a1f:	75 3a                	jne    8048a5b <main+0x80>
 8048a21:	ff 73 04             	pushl  0x4(%ebx)
 8048a24:	ff 33                	pushl  (%ebx)
 8048a26:	68 aa 9e 04 08       	push   $0x8049eaa
 8048a2b:	6a 01                	push   $0x1
 8048a2d:	e8 0e fe ff ff       	call   8048840 <__printf_chk@plt>
 8048a32:	c7 04 24 08 00 00 00 	movl   $0x8,(%esp)
 8048a39:	e8 a2 fd ff ff       	call   80487e0 <exit@plt>
 8048a3e:	83 ec 04             	sub    $0x4,%esp
 8048a41:	ff 33                	pushl  (%ebx)
 8048a43:	68 c7 9e 04 08       	push   $0x8049ec7
 8048a48:	6a 01                	push   $0x1
 8048a4a:	e8 f1 fd ff ff       	call   8048840 <__printf_chk@plt>
 8048a4f:	c7 04 24 08 00 00 00 	movl   $0x8,(%esp)
 8048a56:	e8 85 fd ff ff       	call   80487e0 <exit@plt>
 8048a5b:	e8 ed 05 00 00       	call   804904d <initialize_bomb>
 8048a60:	83 ec 0c             	sub    $0xc,%esp
 8048a63:	68 2c 9f 04 08       	push   $0x8049f2c
 8048a68:	e8 53 fd ff ff       	call   80487c0 <puts@plt>
 8048a6d:	c7 04 24 68 9f 04 08 	movl   $0x8049f68,(%esp)
 8048a74:	e8 47 fd ff ff       	call   80487c0 <puts@plt>
 8048a79:	e8 c1 06 00 00       	call   804913f <read_line>
 8048a7e:	89 04 24             	mov    %eax,(%esp)
 8048a81:	e8 ad 00 00 00       	call   8048b33 <phase_1>
 8048a86:	e8 ad 07 00 00       	call   8049238 <phase_defused>
 8048a8b:	c7 04 24 94 9f 04 08 	movl   $0x8049f94,(%esp)
 8048a92:	e8 29 fd ff ff       	call   80487c0 <puts@plt>
 8048a97:	e8 a3 06 00 00       	call   804913f <read_line>
 8048a9c:	89 04 24             	mov    %eax,(%esp)
 8048a9f:	e8 b0 00 00 00       	call   8048b54 <phase_2>
 8048aa4:	e8 8f 07 00 00       	call   8049238 <phase_defused>
 8048aa9:	c7 04 24 e1 9e 04 08 	movl   $0x8049ee1,(%esp)
 8048ab0:	e8 0b fd ff ff       	call   80487c0 <puts@plt>
 8048ab5:	e8 85 06 00 00       	call   804913f <read_line>
 8048aba:	89 04 24             	mov    %eax,(%esp)
 8048abd:	e8 f3 00 00 00       	call   8048bb5 <phase_3>
 8048ac2:	e8 71 07 00 00       	call   8049238 <phase_defused>
 8048ac7:	c7 04 24 ff 9e 04 08 	movl   $0x8049eff,(%esp)
 8048ace:	e8 ed fc ff ff       	call   80487c0 <puts@plt>
 8048ad3:	e8 67 06 00 00       	call   804913f <read_line>
 8048ad8:	89 04 24             	mov    %eax,(%esp)
 8048adb:	e8 06 02 00 00       	call   8048ce6 <phase_4>
 8048ae0:	e8 53 07 00 00       	call   8049238 <phase_defused>
 8048ae5:	c7 04 24 c0 9f 04 08 	movl   $0x8049fc0,(%esp)
 8048aec:	e8 cf fc ff ff       	call   80487c0 <puts@plt>
 8048af1:	e8 49 06 00 00       	call   804913f <read_line>
 8048af6:	89 04 24             	mov    %eax,(%esp)
 8048af9:	e8 5d 02 00 00       	call   8048d5b <phase_5>
 8048afe:	e8 35 07 00 00       	call   8049238 <phase_defused>
 8048b03:	c7 04 24 0e 9f 04 08 	movl   $0x8049f0e,(%esp)
 8048b0a:	e8 b1 fc ff ff       	call   80487c0 <puts@plt>
 8048b0f:	e8 2b 06 00 00       	call   804913f <read_line>
 8048b14:	89 04 24             	mov    %eax,(%esp)
 8048b17:	e8 87 02 00 00       	call   8048da3 <phase_6>
 8048b1c:	e8 17 07 00 00       	call   8049238 <phase_defused>
 8048b21:	83 c4 10             	add    $0x10,%esp
 8048b24:	b8 00 00 00 00       	mov    $0x0,%eax
 8048b29:	8d 65 f8             	lea    -0x8(%ebp),%esp
 8048b2c:	59                   	pop    %ecx
 8048b2d:	5b                   	pop    %ebx
 8048b2e:	5d                   	pop    %ebp
 8048b2f:	8d 61 fc             	lea    -0x4(%ecx),%esp
 8048b32:	c3                   	ret    

08048b33 <phase_1>:
 8048b33:	83 ec 14             	sub    $0x14,%esp
 8048b36:	68 e4 9f 04 08       	push   $0x8049fe4
 8048b3b:	ff 74 24 1c          	pushl  0x1c(%esp)
 8048b3f:	e8 a4 04 00 00       	call   8048fe8 <strings_not_equal>
 8048b44:	83 c4 10             	add    $0x10,%esp
 8048b47:	85 c0                	test   %eax,%eax
 8048b49:	74 05                	je     8048b50 <phase_1+0x1d>
 8048b4b:	e8 8f 05 00 00       	call   80490df <explode_bomb>
 8048b50:	83 c4 0c             	add    $0xc,%esp
 8048b53:	c3                   	ret    

08048b54 <phase_2>:
 8048b54:	53                   	push   %ebx
 8048b55:	83 ec 30             	sub    $0x30,%esp
 8048b58:	65 a1 14 00 00 00    	mov    %gs:0x14,%eax
 8048b5e:	89 44 24 24          	mov    %eax,0x24(%esp)
 8048b62:	31 c0                	xor    %eax,%eax
 8048b64:	8d 44 24 0c          	lea    0xc(%esp),%eax
 8048b68:	50                   	push   %eax
 8048b69:	ff 74 24 3c          	pushl  0x3c(%esp)
 8048b6d:	e8 92 05 00 00       	call   8049104 <read_six_numbers>
 8048b72:	83 c4 10             	add    $0x10,%esp
 8048b75:	83 7c 24 04 00       	cmpl   $0x0,0x4(%esp)
 8048b7a:	79 05                	jns    8048b81 <phase_2+0x2d>
 8048b7c:	e8 5e 05 00 00       	call   80490df <explode_bomb>
 8048b81:	bb 01 00 00 00       	mov    $0x1,%ebx
 8048b86:	89 d8                	mov    %ebx,%eax
 8048b88:	03 04 9c             	add    (%esp,%ebx,4),%eax
 8048b8b:	39 44 9c 04          	cmp    %eax,0x4(%esp,%ebx,4)
 8048b8f:	74 05                	je     8048b96 <phase_2+0x42>
 8048b91:	e8 49 05 00 00       	call   80490df <explode_bomb>
 8048b96:	83 c3 01             	add    $0x1,%ebx
 8048b99:	83 fb 06             	cmp    $0x6,%ebx
 8048b9c:	75 e8                	jne    8048b86 <phase_2+0x32>
 8048b9e:	8b 44 24 1c          	mov    0x1c(%esp),%eax
 8048ba2:	65 33 05 14 00 00 00 	xor    %gs:0x14,%eax
 8048ba9:	74 05                	je     8048bb0 <phase_2+0x5c>
 8048bab:	e8 e0 fb ff ff       	call   8048790 <__stack_chk_fail@plt>
 8048bb0:	83 c4 28             	add    $0x28,%esp
 8048bb3:	5b                   	pop    %ebx
 8048bb4:	c3                   	ret    

08048bb5 <phase_3>:
 8048bb5:	83 ec 1c             	sub    $0x1c,%esp
 8048bb8:	65 a1 14 00 00 00    	mov    %gs:0x14,%eax
 8048bbe:	89 44 24 0c          	mov    %eax,0xc(%esp)
 8048bc2:	31 c0                	xor    %eax,%eax
 8048bc4:	8d 44 24 08          	lea    0x8(%esp),%eax
 8048bc8:	50                   	push   %eax
 8048bc9:	8d 44 24 08          	lea    0x8(%esp),%eax
 8048bcd:	50                   	push   %eax
 8048bce:	68 af a1 04 08       	push   $0x804a1af
 8048bd3:	ff 74 24 2c          	pushl  0x2c(%esp)
 8048bd7:	e8 34 fc ff ff       	call   8048810 <__isoc99_sscanf@plt>
 8048bdc:	83 c4 10             	add    $0x10,%esp
 8048bdf:	83 f8 01             	cmp    $0x1,%eax
 8048be2:	7f 05                	jg     8048be9 <phase_3+0x34>
 8048be4:	e8 f6 04 00 00       	call   80490df <explode_bomb>
 8048be9:	83 7c 24 04 07       	cmpl   $0x7,0x4(%esp)
 8048bee:	77 66                	ja     8048c56 <phase_3+0xa1>
 8048bf0:	8b 44 24 04          	mov    0x4(%esp),%eax
 8048bf4:	ff 24 85 40 a0 04 08 	jmp    *0x804a040(,%eax,4)
 8048bfb:	b8 9e 02 00 00       	mov    $0x29e,%eax
 8048c00:	eb 05                	jmp    8048c07 <phase_3+0x52>
 8048c02:	b8 00 00 00 00       	mov    $0x0,%eax
 8048c07:	2d a6 00 00 00       	sub    $0xa6,%eax
 8048c0c:	eb 05                	jmp    8048c13 <phase_3+0x5e>
 8048c0e:	b8 00 00 00 00       	mov    $0x0,%eax
 8048c13:	05 d9 02 00 00       	add    $0x2d9,%eax
 8048c18:	eb 05                	jmp    8048c1f <phase_3+0x6a>
 8048c1a:	b8 00 00 00 00       	mov    $0x0,%eax
 8048c1f:	2d 9a 00 00 00       	sub    $0x9a,%eax
 8048c24:	eb 05                	jmp    8048c2b <phase_3+0x76>
 8048c26:	b8 00 00 00 00       	mov    $0x0,%eax
 8048c2b:	05 9a 00 00 00       	add    $0x9a,%eax
 8048c30:	eb 05                	jmp    8048c37 <phase_3+0x82>
 8048c32:	b8 00 00 00 00       	mov    $0x0,%eax
 8048c37:	2d 9a 00 00 00       	sub    $0x9a,%eax
 8048c3c:	eb 05                	jmp    8048c43 <phase_3+0x8e>
 8048c3e:	b8 00 00 00 00       	mov    $0x0,%eax
 8048c43:	05 9a 00 00 00       	add    $0x9a,%eax
 8048c48:	eb 05                	jmp    8048c4f <phase_3+0x9a>
 8048c4a:	b8 00 00 00 00       	mov    $0x0,%eax
 8048c4f:	2d 9a 00 00 00       	sub    $0x9a,%eax
 8048c54:	eb 0a                	jmp    8048c60 <phase_3+0xab>
 8048c56:	e8 84 04 00 00       	call   80490df <explode_bomb>
 8048c5b:	b8 00 00 00 00       	mov    $0x0,%eax
 8048c60:	83 7c 24 04 05       	cmpl   $0x5,0x4(%esp)
 8048c65:	7f 06                	jg     8048c6d <phase_3+0xb8>
 8048c67:	3b 44 24 08          	cmp    0x8(%esp),%eax
 8048c6b:	74 05                	je     8048c72 <phase_3+0xbd>
 8048c6d:	e8 6d 04 00 00       	call   80490df <explode_bomb>
 8048c72:	8b 44 24 0c          	mov    0xc(%esp),%eax
 8048c76:	65 33 05 14 00 00 00 	xor    %gs:0x14,%eax
 8048c7d:	74 05                	je     8048c84 <phase_3+0xcf>
 8048c7f:	e8 0c fb ff ff       	call   8048790 <__stack_chk_fail@plt>
 8048c84:	83 c4 1c             	add    $0x1c,%esp
 8048c87:	c3                   	ret    

08048c88 <func4>:
 8048c88:	56                   	push   %esi
 8048c89:	53                   	push   %ebx
 8048c8a:	83 ec 04             	sub    $0x4,%esp
 8048c8d:	8b 4c 24 10          	mov    0x10(%esp),%ecx
 8048c91:	8b 5c 24 14          	mov    0x14(%esp),%ebx
 8048c95:	8b 74 24 18          	mov    0x18(%esp),%esi
 8048c99:	89 f0                	mov    %esi,%eax
 8048c9b:	29 d8                	sub    %ebx,%eax
 8048c9d:	89 c2                	mov    %eax,%edx
 8048c9f:	c1 ea 1f             	shr    $0x1f,%edx
 8048ca2:	01 d0                	add    %edx,%eax
 8048ca4:	d1 f8                	sar    %eax
 8048ca6:	8d 14 18             	lea    (%eax,%ebx,1),%edx
 8048ca9:	39 ca                	cmp    %ecx,%edx
 8048cab:	7e 15                	jle    8048cc2 <func4+0x3a>
 8048cad:	83 ec 04             	sub    $0x4,%esp
 8048cb0:	83 ea 01             	sub    $0x1,%edx
 8048cb3:	52                   	push   %edx
 8048cb4:	53                   	push   %ebx
 8048cb5:	51                   	push   %ecx
 8048cb6:	e8 cd ff ff ff       	call   8048c88 <func4>
 8048cbb:	83 c4 10             	add    $0x10,%esp
 8048cbe:	01 c0                	add    %eax,%eax
 8048cc0:	eb 1e                	jmp    8048ce0 <func4+0x58>
 8048cc2:	b8 00 00 00 00       	mov    $0x0,%eax
 8048cc7:	39 ca                	cmp    %ecx,%edx
 8048cc9:	7d 15                	jge    8048ce0 <func4+0x58>
 8048ccb:	83 ec 04             	sub    $0x4,%esp
 8048cce:	56                   	push   %esi
 8048ccf:	83 c2 01             	add    $0x1,%edx
 8048cd2:	52                   	push   %edx
 8048cd3:	51                   	push   %ecx
 8048cd4:	e8 af ff ff ff       	call   8048c88 <func4>
 8048cd9:	83 c4 10             	add    $0x10,%esp
 8048cdc:	8d 44 00 01          	lea    0x1(%eax,%eax,1),%eax
 8048ce0:	83 c4 04             	add    $0x4,%esp
 8048ce3:	5b                   	pop    %ebx
 8048ce4:	5e                   	pop    %esi
 8048ce5:	c3                   	ret    

08048ce6 <phase_4>:
 8048ce6:	83 ec 1c             	sub    $0x1c,%esp
 8048ce9:	65 a1 14 00 00 00    	mov    %gs:0x14,%eax
 8048cef:	89 44 24 0c          	mov    %eax,0xc(%esp)
 8048cf3:	31 c0                	xor    %eax,%eax
 8048cf5:	8d 44 24 08          	lea    0x8(%esp),%eax
 8048cf9:	50                   	push   %eax
 8048cfa:	8d 44 24 08          	lea    0x8(%esp),%eax
 8048cfe:	50                   	push   %eax
 8048cff:	68 af a1 04 08       	push   $0x804a1af
 8048d04:	ff 74 24 2c          	pushl  0x2c(%esp)
 8048d08:	e8 03 fb ff ff       	call   8048810 <__isoc99_sscanf@plt>
 8048d0d:	83 c4 10             	add    $0x10,%esp
 8048d10:	83 f8 02             	cmp    $0x2,%eax
 8048d13:	75 07                	jne    8048d1c <phase_4+0x36>
 8048d15:	83 7c 24 04 0e       	cmpl   $0xe,0x4(%esp)
 8048d1a:	76 05                	jbe    8048d21 <phase_4+0x3b>
 8048d1c:	e8 be 03 00 00       	call   80490df <explode_bomb>
 8048d21:	83 ec 04             	sub    $0x4,%esp
 8048d24:	6a 0e                	push   $0xe
 8048d26:	6a 00                	push   $0x0
 8048d28:	ff 74 24 10          	pushl  0x10(%esp)
 8048d2c:	e8 57 ff ff ff       	call   8048c88 <func4>
 8048d31:	83 c4 10             	add    $0x10,%esp
 8048d34:	83 f8 01             	cmp    $0x1,%eax
 8048d37:	75 07                	jne    8048d40 <phase_4+0x5a>
 8048d39:	83 7c 24 08 01       	cmpl   $0x1,0x8(%esp)
 8048d3e:	74 05                	je     8048d45 <phase_4+0x5f>
 8048d40:	e8 9a 03 00 00       	call   80490df <explode_bomb>
 8048d45:	8b 44 24 0c          	mov    0xc(%esp),%eax
 8048d49:	65 33 05 14 00 00 00 	xor    %gs:0x14,%eax
 8048d50:	74 05                	je     8048d57 <phase_4+0x71>
 8048d52:	e8 39 fa ff ff       	call   8048790 <__stack_chk_fail@plt>
 8048d57:	83 c4 1c             	add    $0x1c,%esp
 8048d5a:	c3                   	ret    

08048d5b <phase_5>:
 8048d5b:	53                   	push   %ebx
 8048d5c:	83 ec 14             	sub    $0x14,%esp
 8048d5f:	8b 5c 24 1c          	mov    0x1c(%esp),%ebx
 8048d63:	53                   	push   %ebx
 8048d64:	e8 60 02 00 00       	call   8048fc9 <string_length>
 8048d69:	83 c4 10             	add    $0x10,%esp
 8048d6c:	83 f8 06             	cmp    $0x6,%eax
 8048d6f:	74 05                	je     8048d76 <phase_5+0x1b>
 8048d71:	e8 69 03 00 00       	call   80490df <explode_bomb>
 8048d76:	89 d8                	mov    %ebx,%eax
 8048d78:	83 c3 06             	add    $0x6,%ebx
 8048d7b:	b9 00 00 00 00       	mov    $0x0,%ecx
 8048d80:	0f b6 10             	movzbl (%eax),%edx
 8048d83:	83 e2 0f             	and    $0xf,%edx
 8048d86:	03 0c 95 60 a0 04 08 	add    0x804a060(,%edx,4),%ecx
 8048d8d:	83 c0 01             	add    $0x1,%eax
 8048d90:	39 d8                	cmp    %ebx,%eax
 8048d92:	75 ec                	jne    8048d80 <phase_5+0x25>
 8048d94:	83 f9 2d             	cmp    $0x2d,%ecx
 8048d97:	74 05                	je     8048d9e <phase_5+0x43>
 8048d99:	e8 41 03 00 00       	call   80490df <explode_bomb>
 8048d9e:	83 c4 08             	add    $0x8,%esp
 8048da1:	5b                   	pop    %ebx
 8048da2:	c3                   	ret    

08048da3 <phase_6>:
 8048da3:	56                   	push   %esi
 8048da4:	53                   	push   %ebx
 8048da5:	83 ec 4c             	sub    $0x4c,%esp
 8048da8:	65 a1 14 00 00 00    	mov    %gs:0x14,%eax
 8048dae:	89 44 24 44          	mov    %eax,0x44(%esp)
 8048db2:	31 c0                	xor    %eax,%eax
 8048db4:	8d 44 24 14          	lea    0x14(%esp),%eax
 8048db8:	50                   	push   %eax
 8048db9:	ff 74 24 5c          	pushl  0x5c(%esp)
 8048dbd:	e8 42 03 00 00       	call   8049104 <read_six_numbers>
 8048dc2:	83 c4 10             	add    $0x10,%esp
 8048dc5:	be 00 00 00 00       	mov    $0x0,%esi
 8048dca:	8b 44 b4 0c          	mov    0xc(%esp,%esi,4),%eax
 8048dce:	83 e8 01             	sub    $0x1,%eax
 8048dd1:	83 f8 05             	cmp    $0x5,%eax
 8048dd4:	76 05                	jbe    8048ddb <phase_6+0x38>
 8048dd6:	e8 04 03 00 00       	call   80490df <explode_bomb>
 8048ddb:	83 c6 01             	add    $0x1,%esi
 8048dde:	83 fe 06             	cmp    $0x6,%esi
 8048de1:	74 1b                	je     8048dfe <phase_6+0x5b>
 8048de3:	89 f3                	mov    %esi,%ebx
 8048de5:	8b 44 9c 0c          	mov    0xc(%esp,%ebx,4),%eax
 8048de9:	39 44 b4 08          	cmp    %eax,0x8(%esp,%esi,4)
 8048ded:	75 05                	jne    8048df4 <phase_6+0x51>
 8048def:	e8 eb 02 00 00       	call   80490df <explode_bomb>
 8048df4:	83 c3 01             	add    $0x1,%ebx
 8048df7:	83 fb 05             	cmp    $0x5,%ebx
 8048dfa:	7e e9                	jle    8048de5 <phase_6+0x42>
 8048dfc:	eb cc                	jmp    8048dca <phase_6+0x27>
 8048dfe:	8d 44 24 0c          	lea    0xc(%esp),%eax
 8048e02:	8d 5c 24 24          	lea    0x24(%esp),%ebx
 8048e06:	b9 07 00 00 00       	mov    $0x7,%ecx
 8048e0b:	89 ca                	mov    %ecx,%edx
 8048e0d:	2b 10                	sub    (%eax),%edx
 8048e0f:	89 10                	mov    %edx,(%eax)
 8048e11:	83 c0 04             	add    $0x4,%eax
 8048e14:	39 c3                	cmp    %eax,%ebx
 8048e16:	75 f3                	jne    8048e0b <phase_6+0x68>
 8048e18:	bb 00 00 00 00       	mov    $0x0,%ebx
 8048e1d:	eb 16                	jmp    8048e35 <phase_6+0x92>
 8048e1f:	8b 52 08             	mov    0x8(%edx),%edx
 8048e22:	83 c0 01             	add    $0x1,%eax
 8048e25:	39 c8                	cmp    %ecx,%eax
 8048e27:	75 f6                	jne    8048e1f <phase_6+0x7c>
 8048e29:	89 54 b4 24          	mov    %edx,0x24(%esp,%esi,4)
 8048e2d:	83 c3 01             	add    $0x1,%ebx
 8048e30:	83 fb 06             	cmp    $0x6,%ebx
 8048e33:	74 17                	je     8048e4c <phase_6+0xa9>
 8048e35:	89 de                	mov    %ebx,%esi
 8048e37:	8b 4c 9c 0c          	mov    0xc(%esp,%ebx,4),%ecx
 8048e3b:	b8 01 00 00 00       	mov    $0x1,%eax
 8048e40:	ba 3c c1 04 08       	mov    $0x804c13c,%edx
 8048e45:	83 f9 01             	cmp    $0x1,%ecx
 8048e48:	7f d5                	jg     8048e1f <phase_6+0x7c>
 8048e4a:	eb dd                	jmp    8048e29 <phase_6+0x86>
 8048e4c:	8b 5c 24 24          	mov    0x24(%esp),%ebx
 8048e50:	8d 44 24 24          	lea    0x24(%esp),%eax
 8048e54:	8d 74 24 38          	lea    0x38(%esp),%esi
 8048e58:	89 d9                	mov    %ebx,%ecx
 8048e5a:	8b 50 04             	mov    0x4(%eax),%edx
 8048e5d:	89 51 08             	mov    %edx,0x8(%ecx)
 8048e60:	83 c0 04             	add    $0x4,%eax
 8048e63:	89 d1                	mov    %edx,%ecx
 8048e65:	39 c6                	cmp    %eax,%esi
 8048e67:	75 f1                	jne    8048e5a <phase_6+0xb7>
 8048e69:	c7 42 08 00 00 00 00 	movl   $0x0,0x8(%edx)
 8048e70:	be 05 00 00 00       	mov    $0x5,%esi
 8048e75:	8b 43 08             	mov    0x8(%ebx),%eax
 8048e78:	8b 00                	mov    (%eax),%eax
 8048e7a:	39 03                	cmp    %eax,(%ebx)
 8048e7c:	7d 05                	jge    8048e83 <phase_6+0xe0>
 8048e7e:	e8 5c 02 00 00       	call   80490df <explode_bomb>
 8048e83:	8b 5b 08             	mov    0x8(%ebx),%ebx
 8048e86:	83 ee 01             	sub    $0x1,%esi
 8048e89:	75 ea                	jne    8048e75 <phase_6+0xd2>
 8048e8b:	8b 44 24 3c          	mov    0x3c(%esp),%eax
 8048e8f:	65 33 05 14 00 00 00 	xor    %gs:0x14,%eax
 8048e96:	74 05                	je     8048e9d <phase_6+0xfa>
 8048e98:	e8 f3 f8 ff ff       	call   8048790 <__stack_chk_fail@plt>
 8048e9d:	83 c4 44             	add    $0x44,%esp
 8048ea0:	5b                   	pop    %ebx
 8048ea1:	5e                   	pop    %esi
 8048ea2:	c3                   	ret    

08048ea3 <fun7>:
 8048ea3:	53                   	push   %ebx
 8048ea4:	83 ec 08             	sub    $0x8,%esp
 8048ea7:	8b 54 24 10          	mov    0x10(%esp),%edx
 8048eab:	8b 4c 24 14          	mov    0x14(%esp),%ecx
 8048eaf:	85 d2                	test   %edx,%edx
 8048eb1:	74 37                	je     8048eea <fun7+0x47>
 8048eb3:	8b 1a                	mov    (%edx),%ebx
 8048eb5:	39 cb                	cmp    %ecx,%ebx
 8048eb7:	7e 13                	jle    8048ecc <fun7+0x29>
 8048eb9:	83 ec 08             	sub    $0x8,%esp
 8048ebc:	51                   	push   %ecx
 8048ebd:	ff 72 04             	pushl  0x4(%edx)
 8048ec0:	e8 de ff ff ff       	call   8048ea3 <fun7>
 8048ec5:	83 c4 10             	add    $0x10,%esp
 8048ec8:	01 c0                	add    %eax,%eax
 8048eca:	eb 23                	jmp    8048eef <fun7+0x4c>
 8048ecc:	b8 00 00 00 00       	mov    $0x0,%eax
 8048ed1:	39 cb                	cmp    %ecx,%ebx
 8048ed3:	74 1a                	je     8048eef <fun7+0x4c>
 8048ed5:	83 ec 08             	sub    $0x8,%esp
 8048ed8:	51                   	push   %ecx
 8048ed9:	ff 72 08             	pushl  0x8(%edx)
 8048edc:	e8 c2 ff ff ff       	call   8048ea3 <fun7>
 8048ee1:	83 c4 10             	add    $0x10,%esp
 8048ee4:	8d 44 00 01          	lea    0x1(%eax,%eax,1),%eax
 8048ee8:	eb 05                	jmp    8048eef <fun7+0x4c>
 8048eea:	b8 ff ff ff ff       	mov    $0xffffffff,%eax
 8048eef:	83 c4 08             	add    $0x8,%esp
 8048ef2:	5b                   	pop    %ebx
 8048ef3:	c3                   	ret    

08048ef4 <secret_phase>:
 8048ef4:	53                   	push   %ebx
 8048ef5:	83 ec 08             	sub    $0x8,%esp
 8048ef8:	e8 42 02 00 00       	call   804913f <read_line>
 8048efd:	83 ec 04             	sub    $0x4,%esp
 8048f00:	6a 0a                	push   $0xa
 8048f02:	6a 00                	push   $0x0
 8048f04:	50                   	push   %eax
 8048f05:	e8 76 f9 ff ff       	call   8048880 <strtol@plt>
 8048f0a:	89 c3                	mov    %eax,%ebx
 8048f0c:	8d 40 ff             	lea    -0x1(%eax),%eax
 8048f0f:	83 c4 10             	add    $0x10,%esp
 8048f12:	3d e8 03 00 00       	cmp    $0x3e8,%eax
 8048f17:	76 05                	jbe    8048f1e <secret_phase+0x2a>
 8048f19:	e8 c1 01 00 00       	call   80490df <explode_bomb>
 8048f1e:	83 ec 08             	sub    $0x8,%esp
 8048f21:	53                   	push   %ebx
 8048f22:	68 88 c0 04 08       	push   $0x804c088
 8048f27:	e8 77 ff ff ff       	call   8048ea3 <fun7>
 8048f2c:	83 c4 10             	add    $0x10,%esp
 8048f2f:	83 f8 01             	cmp    $0x1,%eax
 8048f32:	74 05                	je     8048f39 <secret_phase+0x45>
 8048f34:	e8 a6 01 00 00       	call   80490df <explode_bomb>
 8048f39:	83 ec 0c             	sub    $0xc,%esp
 8048f3c:	68 10 a0 04 08       	push   $0x804a010
 8048f41:	e8 7a f8 ff ff       	call   80487c0 <puts@plt>
 8048f46:	e8 ed 02 00 00       	call   8049238 <phase_defused>
 8048f4b:	83 c4 18             	add    $0x18,%esp
 8048f4e:	5b                   	pop    %ebx
 8048f4f:	c3                   	ret    

08048f50 <sig_handler>:
 8048f50:	83 ec 18             	sub    $0x18,%esp
 8048f53:	68 a0 a0 04 08       	push   $0x804a0a0
 8048f58:	e8 63 f8 ff ff       	call   80487c0 <puts@plt>
 8048f5d:	c7 04 24 03 00 00 00 	movl   $0x3,(%esp)
 8048f64:	e8 07 f8 ff ff       	call   8048770 <sleep@plt>
 8048f69:	83 c4 08             	add    $0x8,%esp
 8048f6c:	68 62 a1 04 08       	push   $0x804a162
 8048f71:	6a 01                	push   $0x1
 8048f73:	e8 c8 f8 ff ff       	call   8048840 <__printf_chk@plt>
 8048f78:	83 c4 04             	add    $0x4,%esp
 8048f7b:	ff 35 c4 c3 04 08    	pushl  0x804c3c4
 8048f81:	e8 ba f7 ff ff       	call   8048740 <fflush@plt>
 8048f86:	c7 04 24 01 00 00 00 	movl   $0x1,(%esp)
 8048f8d:	e8 de f7 ff ff       	call   8048770 <sleep@plt>
 8048f92:	c7 04 24 6a a1 04 08 	movl   $0x804a16a,(%esp)
 8048f99:	e8 22 f8 ff ff       	call   80487c0 <puts@plt>
 8048f9e:	c7 04 24 10 00 00 00 	movl   $0x10,(%esp)
 8048fa5:	e8 36 f8 ff ff       	call   80487e0 <exit@plt>

08048faa <invalid_phase>:
 8048faa:	83 ec 10             	sub    $0x10,%esp
 8048fad:	ff 74 24 14          	pushl  0x14(%esp)
 8048fb1:	68 72 a1 04 08       	push   $0x804a172
 8048fb6:	6a 01                	push   $0x1
 8048fb8:	e8 83 f8 ff ff       	call   8048840 <__printf_chk@plt>
 8048fbd:	c7 04 24 08 00 00 00 	movl   $0x8,(%esp)
 8048fc4:	e8 17 f8 ff ff       	call   80487e0 <exit@plt>

08048fc9 <string_length>:
 8048fc9:	8b 54 24 04          	mov    0x4(%esp),%edx
 8048fcd:	80 3a 00             	cmpb   $0x0,(%edx)
 8048fd0:	74 10                	je     8048fe2 <string_length+0x19>
 8048fd2:	b8 00 00 00 00       	mov    $0x0,%eax
 8048fd7:	83 c0 01             	add    $0x1,%eax
 8048fda:	80 3c 02 00          	cmpb   $0x0,(%edx,%eax,1)
 8048fde:	75 f7                	jne    8048fd7 <string_length+0xe>
 8048fe0:	f3 c3                	repz ret 
 8048fe2:	b8 00 00 00 00       	mov    $0x0,%eax
 8048fe7:	c3                   	ret    

08048fe8 <strings_not_equal>:
 8048fe8:	57                   	push   %edi
 8048fe9:	56                   	push   %esi
 8048fea:	53                   	push   %ebx
 8048feb:	8b 5c 24 10          	mov    0x10(%esp),%ebx
 8048fef:	8b 74 24 14          	mov    0x14(%esp),%esi
 8048ff3:	53                   	push   %ebx
 8048ff4:	e8 d0 ff ff ff       	call   8048fc9 <string_length>
 8048ff9:	89 c7                	mov    %eax,%edi
 8048ffb:	89 34 24             	mov    %esi,(%esp)
 8048ffe:	e8 c6 ff ff ff       	call   8048fc9 <string_length>
 8049003:	83 c4 04             	add    $0x4,%esp
 8049006:	ba 01 00 00 00       	mov    $0x1,%edx
 804900b:	39 c7                	cmp    %eax,%edi
 804900d:	75 38                	jne    8049047 <strings_not_equal+0x5f>
 804900f:	0f b6 03             	movzbl (%ebx),%eax
 8049012:	84 c0                	test   %al,%al
 8049014:	74 1e                	je     8049034 <strings_not_equal+0x4c>
 8049016:	3a 06                	cmp    (%esi),%al
 8049018:	74 06                	je     8049020 <strings_not_equal+0x38>
 804901a:	eb 1f                	jmp    804903b <strings_not_equal+0x53>
 804901c:	3a 06                	cmp    (%esi),%al
 804901e:	75 22                	jne    8049042 <strings_not_equal+0x5a>
 8049020:	83 c3 01             	add    $0x1,%ebx
 8049023:	83 c6 01             	add    $0x1,%esi
 8049026:	0f b6 03             	movzbl (%ebx),%eax
 8049029:	84 c0                	test   %al,%al
 804902b:	75 ef                	jne    804901c <strings_not_equal+0x34>
 804902d:	ba 00 00 00 00       	mov    $0x0,%edx
 8049032:	eb 13                	jmp    8049047 <strings_not_equal+0x5f>
 8049034:	ba 00 00 00 00       	mov    $0x0,%edx
 8049039:	eb 0c                	jmp    8049047 <strings_not_equal+0x5f>
 804903b:	ba 01 00 00 00       	mov    $0x1,%edx
 8049040:	eb 05                	jmp    8049047 <strings_not_equal+0x5f>
 8049042:	ba 01 00 00 00       	mov    $0x1,%edx
 8049047:	89 d0                	mov    %edx,%eax
 8049049:	5b                   	pop    %ebx
 804904a:	5e                   	pop    %esi
 804904b:	5f                   	pop    %edi
 804904c:	c3                   	ret    

0804904d <initialize_bomb>:
 804904d:	83 ec 14             	sub    $0x14,%esp
 8049050:	68 50 8f 04 08       	push   $0x8048f50
 8049055:	6a 02                	push   $0x2
 8049057:	e8 04 f7 ff ff       	call   8048760 <signal@plt>
 804905c:	83 c4 1c             	add    $0x1c,%esp
 804905f:	c3                   	ret    

08049060 <initialize_bomb_solve>:
 8049060:	f3 c3                	repz ret 

08049062 <blank_line>:
 8049062:	56                   	push   %esi
 8049063:	53                   	push   %ebx
 8049064:	83 ec 04             	sub    $0x4,%esp
 8049067:	8b 74 24 10          	mov    0x10(%esp),%esi
 804906b:	eb 14                	jmp    8049081 <blank_line+0x1f>
 804906d:	e8 3e f8 ff ff       	call   80488b0 <__ctype_b_loc@plt>
 8049072:	83 c6 01             	add    $0x1,%esi
 8049075:	0f be db             	movsbl %bl,%ebx
 8049078:	8b 00                	mov    (%eax),%eax
 804907a:	f6 44 58 01 20       	testb  $0x20,0x1(%eax,%ebx,2)
 804907f:	74 0e                	je     804908f <blank_line+0x2d>
 8049081:	0f b6 1e             	movzbl (%esi),%ebx
 8049084:	84 db                	test   %bl,%bl
 8049086:	75 e5                	jne    804906d <blank_line+0xb>
 8049088:	b8 01 00 00 00       	mov    $0x1,%eax
 804908d:	eb 05                	jmp    8049094 <blank_line+0x32>
 804908f:	b8 00 00 00 00       	mov    $0x0,%eax
 8049094:	83 c4 04             	add    $0x4,%esp
 8049097:	5b                   	pop    %ebx
 8049098:	5e                   	pop    %esi
 8049099:	c3                   	ret    

0804909a <skip>:
 804909a:	53                   	push   %ebx
 804909b:	83 ec 08             	sub    $0x8,%esp
 804909e:	83 ec 04             	sub    $0x4,%esp
 80490a1:	ff 35 d0 c3 04 08    	pushl  0x804c3d0
 80490a7:	6a 50                	push   $0x50
 80490a9:	a1 cc c3 04 08       	mov    0x804c3cc,%eax
 80490ae:	8d 04 80             	lea    (%eax,%eax,4),%eax
 80490b1:	c1 e0 04             	shl    $0x4,%eax
 80490b4:	05 e0 c3 04 08       	add    $0x804c3e0,%eax
 80490b9:	50                   	push   %eax
 80490ba:	e8 91 f6 ff ff       	call   8048750 <fgets@plt>
 80490bf:	89 c3                	mov    %eax,%ebx
 80490c1:	83 c4 10             	add    $0x10,%esp
 80490c4:	85 c0                	test   %eax,%eax
 80490c6:	74 10                	je     80490d8 <skip+0x3e>
 80490c8:	83 ec 0c             	sub    $0xc,%esp
 80490cb:	50                   	push   %eax
 80490cc:	e8 91 ff ff ff       	call   8049062 <blank_line>
 80490d1:	83 c4 10             	add    $0x10,%esp
 80490d4:	85 c0                	test   %eax,%eax
 80490d6:	75 c6                	jne    804909e <skip+0x4>
 80490d8:	89 d8                	mov    %ebx,%eax
 80490da:	83 c4 08             	add    $0x8,%esp
 80490dd:	5b                   	pop    %ebx
 80490de:	c3                   	ret    

080490df <explode_bomb>:
 80490df:	83 ec 18             	sub    $0x18,%esp
 80490e2:	68 83 a1 04 08       	push   $0x804a183
 80490e7:	e8 d4 f6 ff ff       	call   80487c0 <puts@plt>
 80490ec:	c7 04 24 8c a1 04 08 	movl   $0x804a18c,(%esp)
 80490f3:	e8 c8 f6 ff ff       	call   80487c0 <puts@plt>
 80490f8:	c7 04 24 08 00 00 00 	movl   $0x8,(%esp)
 80490ff:	e8 dc f6 ff ff       	call   80487e0 <exit@plt>

08049104 <read_six_numbers>:
 8049104:	83 ec 0c             	sub    $0xc,%esp
 8049107:	8b 44 24 14          	mov    0x14(%esp),%eax
 804910b:	8d 50 14             	lea    0x14(%eax),%edx
 804910e:	52                   	push   %edx
 804910f:	8d 50 10             	lea    0x10(%eax),%edx
 8049112:	52                   	push   %edx
 8049113:	8d 50 0c             	lea    0xc(%eax),%edx
 8049116:	52                   	push   %edx
 8049117:	8d 50 08             	lea    0x8(%eax),%edx
 804911a:	52                   	push   %edx
 804911b:	8d 50 04             	lea    0x4(%eax),%edx
 804911e:	52                   	push   %edx
 804911f:	50                   	push   %eax
 8049120:	68 a3 a1 04 08       	push   $0x804a1a3
 8049125:	ff 74 24 2c          	pushl  0x2c(%esp)
 8049129:	e8 e2 f6 ff ff       	call   8048810 <__isoc99_sscanf@plt>
 804912e:	83 c4 20             	add    $0x20,%esp
 8049131:	83 f8 05             	cmp    $0x5,%eax
 8049134:	7f 05                	jg     804913b <read_six_numbers+0x37>
 8049136:	e8 a4 ff ff ff       	call   80490df <explode_bomb>
 804913b:	83 c4 0c             	add    $0xc,%esp
 804913e:	c3                   	ret    

0804913f <read_line>:
 804913f:	57                   	push   %edi
 8049140:	56                   	push   %esi
 8049141:	53                   	push   %ebx
 8049142:	e8 53 ff ff ff       	call   804909a <skip>
 8049147:	85 c0                	test   %eax,%eax
 8049149:	75 70                	jne    80491bb <read_line+0x7c>
 804914b:	a1 c0 c3 04 08       	mov    0x804c3c0,%eax
 8049150:	39 05 d0 c3 04 08    	cmp    %eax,0x804c3d0
 8049156:	75 19                	jne    8049171 <read_line+0x32>
 8049158:	83 ec 0c             	sub    $0xc,%esp
 804915b:	68 b5 a1 04 08       	push   $0x804a1b5
 8049160:	e8 5b f6 ff ff       	call   80487c0 <puts@plt>
 8049165:	c7 04 24 08 00 00 00 	movl   $0x8,(%esp)
 804916c:	e8 6f f6 ff ff       	call   80487e0 <exit@plt>
 8049171:	83 ec 0c             	sub    $0xc,%esp
 8049174:	68 d3 a1 04 08       	push   $0x804a1d3
 8049179:	e8 32 f6 ff ff       	call   80487b0 <getenv@plt>
 804917e:	83 c4 10             	add    $0x10,%esp
 8049181:	85 c0                	test   %eax,%eax
 8049183:	74 0a                	je     804918f <read_line+0x50>
 8049185:	83 ec 0c             	sub    $0xc,%esp
 8049188:	6a 00                	push   $0x0
 804918a:	e8 51 f6 ff ff       	call   80487e0 <exit@plt>
 804918f:	a1 c0 c3 04 08       	mov    0x804c3c0,%eax
 8049194:	a3 d0 c3 04 08       	mov    %eax,0x804c3d0
 8049199:	e8 fc fe ff ff       	call   804909a <skip>
 804919e:	85 c0                	test   %eax,%eax
 80491a0:	75 19                	jne    80491bb <read_line+0x7c>
 80491a2:	83 ec 0c             	sub    $0xc,%esp
 80491a5:	68 b5 a1 04 08       	push   $0x804a1b5
 80491aa:	e8 11 f6 ff ff       	call   80487c0 <puts@plt>
 80491af:	c7 04 24 00 00 00 00 	movl   $0x0,(%esp)
 80491b6:	e8 25 f6 ff ff       	call   80487e0 <exit@plt>
 80491bb:	8b 15 cc c3 04 08    	mov    0x804c3cc,%edx
 80491c1:	8d 1c 92             	lea    (%edx,%edx,4),%ebx
 80491c4:	c1 e3 04             	shl    $0x4,%ebx
 80491c7:	81 c3 e0 c3 04 08    	add    $0x804c3e0,%ebx
 80491cd:	b8 00 00 00 00       	mov    $0x0,%eax
 80491d2:	b9 ff ff ff ff       	mov    $0xffffffff,%ecx
 80491d7:	89 df                	mov    %ebx,%edi
 80491d9:	f2 ae                	repnz scas %es:(%edi),%al
 80491db:	f7 d1                	not    %ecx
 80491dd:	83 e9 01             	sub    $0x1,%ecx
 80491e0:	83 f9 4e             	cmp    $0x4e,%ecx
 80491e3:	7e 36                	jle    804921b <read_line+0xdc>
 80491e5:	83 ec 0c             	sub    $0xc,%esp
 80491e8:	68 de a1 04 08       	push   $0x804a1de
 80491ed:	e8 ce f5 ff ff       	call   80487c0 <puts@plt>
 80491f2:	a1 cc c3 04 08       	mov    0x804c3cc,%eax
 80491f7:	8d 50 01             	lea    0x1(%eax),%edx
 80491fa:	89 15 cc c3 04 08    	mov    %edx,0x804c3cc
 8049200:	6b c0 50             	imul   $0x50,%eax,%eax
 8049203:	05 e0 c3 04 08       	add    $0x804c3e0,%eax
 8049208:	be f9 a1 04 08       	mov    $0x804a1f9,%esi
 804920d:	b9 04 00 00 00       	mov    $0x4,%ecx
 8049212:	89 c7                	mov    %eax,%edi
 8049214:	f3 a5                	rep movsl %ds:(%esi),%es:(%edi)
 8049216:	e8 c4 fe ff ff       	call   80490df <explode_bomb>
 804921b:	8d 04 92             	lea    (%edx,%edx,4),%eax
 804921e:	c1 e0 04             	shl    $0x4,%eax
 8049221:	c6 84 01 df c3 04 08 	movb   $0x0,0x804c3df(%ecx,%eax,1)
 8049228:	00 
 8049229:	83 c2 01             	add    $0x1,%edx
 804922c:	89 15 cc c3 04 08    	mov    %edx,0x804c3cc
 8049232:	89 d8                	mov    %ebx,%eax
 8049234:	5b                   	pop    %ebx
 8049235:	5e                   	pop    %esi
 8049236:	5f                   	pop    %edi
 8049237:	c3                   	ret    

08049238 <phase_defused>:
 8049238:	83 ec 6c             	sub    $0x6c,%esp
 804923b:	65 a1 14 00 00 00    	mov    %gs:0x14,%eax
 8049241:	89 44 24 5c          	mov    %eax,0x5c(%esp)
 8049245:	31 c0                	xor    %eax,%eax
 8049247:	83 3d cc c3 04 08 06 	cmpl   $0x6,0x804c3cc
 804924e:	75 73                	jne    80492c3 <phase_defused+0x8b>
 8049250:	83 ec 0c             	sub    $0xc,%esp
 8049253:	8d 44 24 18          	lea    0x18(%esp),%eax
 8049257:	50                   	push   %eax
 8049258:	8d 44 24 18          	lea    0x18(%esp),%eax
 804925c:	50                   	push   %eax
 804925d:	8d 44 24 18          	lea    0x18(%esp),%eax
 8049261:	50                   	push   %eax
 8049262:	68 09 a2 04 08       	push   $0x804a209
 8049267:	68 d0 c4 04 08       	push   $0x804c4d0
 804926c:	e8 9f f5 ff ff       	call   8048810 <__isoc99_sscanf@plt>
 8049271:	83 c4 20             	add    $0x20,%esp
 8049274:	83 f8 03             	cmp    $0x3,%eax
 8049277:	75 3a                	jne    80492b3 <phase_defused+0x7b>
 8049279:	83 ec 08             	sub    $0x8,%esp
 804927c:	68 12 a2 04 08       	push   $0x804a212
 8049281:	8d 44 24 18          	lea    0x18(%esp),%eax
 8049285:	50                   	push   %eax
 8049286:	e8 5d fd ff ff       	call   8048fe8 <strings_not_equal>
 804928b:	83 c4 10             	add    $0x10,%esp
 804928e:	85 c0                	test   %eax,%eax
 8049290:	75 21                	jne    80492b3 <phase_defused+0x7b>
 8049292:	83 ec 0c             	sub    $0xc,%esp
 8049295:	68 d8 a0 04 08       	push   $0x804a0d8
 804929a:	e8 21 f5 ff ff       	call   80487c0 <puts@plt>
 804929f:	c7 04 24 00 a1 04 08 	movl   $0x804a100,(%esp)
 80492a6:	e8 15 f5 ff ff       	call   80487c0 <puts@plt>
 80492ab:	e8 44 fc ff ff       	call   8048ef4 <secret_phase>
 80492b0:	83 c4 10             	add    $0x10,%esp
 80492b3:	83 ec 0c             	sub    $0xc,%esp
 80492b6:	68 38 a1 04 08       	push   $0x804a138
 80492bb:	e8 00 f5 ff ff       	call   80487c0 <puts@plt>
 80492c0:	83 c4 10             	add    $0x10,%esp
 80492c3:	8b 44 24 5c          	mov    0x5c(%esp),%eax
 80492c7:	65 33 05 14 00 00 00 	xor    %gs:0x14,%eax
 80492ce:	74 05                	je     80492d5 <phase_defused+0x9d>
 80492d0:	e8 bb f4 ff ff       	call   8048790 <__stack_chk_fail@plt>
 80492d5:	83 c4 6c             	add    $0x6c,%esp
 80492d8:	c3                   	ret    

080492d9 <sigalrm_handler>:
 80492d9:	83 ec 0c             	sub    $0xc,%esp
 80492dc:	6a 00                	push   $0x0
 80492de:	68 68 a2 04 08       	push   $0x804a268
 80492e3:	6a 01                	push   $0x1
 80492e5:	ff 35 a0 c3 04 08    	pushl  0x804c3a0
 80492eb:	e8 70 f5 ff ff       	call   8048860 <__fprintf_chk@plt>
 80492f0:	c7 04 24 01 00 00 00 	movl   $0x1,(%esp)
 80492f7:	e8 e4 f4 ff ff       	call   80487e0 <exit@plt>

080492fc <rio_readlineb>:
 80492fc:	55                   	push   %ebp
 80492fd:	57                   	push   %edi
 80492fe:	56                   	push   %esi
 80492ff:	53                   	push   %ebx
 8049300:	83 ec 2c             	sub    $0x2c,%esp
 8049303:	89 d7                	mov    %edx,%edi
 8049305:	89 4c 24 0c          	mov    %ecx,0xc(%esp)
 8049309:	65 8b 15 14 00 00 00 	mov    %gs:0x14,%edx
 8049310:	89 54 24 1c          	mov    %edx,0x1c(%esp)
 8049314:	31 d2                	xor    %edx,%edx
 8049316:	83 f9 01             	cmp    $0x1,%ecx
 8049319:	76 79                	jbe    8049394 <rio_readlineb+0x98>
 804931b:	89 c3                	mov    %eax,%ebx
 804931d:	89 4c 24 08          	mov    %ecx,0x8(%esp)
 8049321:	bd 01 00 00 00       	mov    $0x1,%ebp
 8049326:	8d 73 0c             	lea    0xc(%ebx),%esi
 8049329:	eb 2d                	jmp    8049358 <rio_readlineb+0x5c>
 804932b:	83 ec 04             	sub    $0x4,%esp
 804932e:	68 00 20 00 00       	push   $0x2000
 8049333:	56                   	push   %esi
 8049334:	ff 33                	pushl  (%ebx)
 8049336:	e8 f5 f3 ff ff       	call   8048730 <read@plt>
 804933b:	89 43 04             	mov    %eax,0x4(%ebx)
 804933e:	83 c4 10             	add    $0x10,%esp
 8049341:	85 c0                	test   %eax,%eax
 8049343:	79 0c                	jns    8049351 <rio_readlineb+0x55>
 8049345:	e8 e6 f4 ff ff       	call   8048830 <__errno_location@plt>
 804934a:	83 38 04             	cmpl   $0x4,(%eax)
 804934d:	74 09                	je     8049358 <rio_readlineb+0x5c>
 804934f:	eb 62                	jmp    80493b3 <rio_readlineb+0xb7>
 8049351:	85 c0                	test   %eax,%eax
 8049353:	74 63                	je     80493b8 <rio_readlineb+0xbc>
 8049355:	89 73 08             	mov    %esi,0x8(%ebx)
 8049358:	8b 43 04             	mov    0x4(%ebx),%eax
 804935b:	85 c0                	test   %eax,%eax
 804935d:	7e cc                	jle    804932b <rio_readlineb+0x2f>
 804935f:	8b 4b 08             	mov    0x8(%ebx),%ecx
 8049362:	0f b6 11             	movzbl (%ecx),%edx
 8049365:	88 54 24 1b          	mov    %dl,0x1b(%esp)
 8049369:	83 c1 01             	add    $0x1,%ecx
 804936c:	89 4b 08             	mov    %ecx,0x8(%ebx)
 804936f:	83 e8 01             	sub    $0x1,%eax
 8049372:	89 43 04             	mov    %eax,0x4(%ebx)
 8049375:	83 c7 01             	add    $0x1,%edi
 8049378:	88 57 ff             	mov    %dl,-0x1(%edi)
 804937b:	80 fa 0a             	cmp    $0xa,%dl
 804937e:	75 09                	jne    8049389 <rio_readlineb+0x8d>
 8049380:	eb 1d                	jmp    804939f <rio_readlineb+0xa3>
 8049382:	83 fd 01             	cmp    $0x1,%ebp
 8049385:	75 18                	jne    804939f <rio_readlineb+0xa3>
 8049387:	eb 1b                	jmp    80493a4 <rio_readlineb+0xa8>
 8049389:	83 c5 01             	add    $0x1,%ebp
 804938c:	3b 6c 24 08          	cmp    0x8(%esp),%ebp
 8049390:	74 09                	je     804939b <rio_readlineb+0x9f>
 8049392:	eb c4                	jmp    8049358 <rio_readlineb+0x5c>
 8049394:	bd 01 00 00 00       	mov    $0x1,%ebp
 8049399:	eb 04                	jmp    804939f <rio_readlineb+0xa3>
 804939b:	8b 6c 24 0c          	mov    0xc(%esp),%ebp
 804939f:	c6 07 00             	movb   $0x0,(%edi)
 80493a2:	89 e8                	mov    %ebp,%eax
 80493a4:	8b 54 24 1c          	mov    0x1c(%esp),%edx
 80493a8:	65 33 15 14 00 00 00 	xor    %gs:0x14,%edx
 80493af:	74 17                	je     80493c8 <rio_readlineb+0xcc>
 80493b1:	eb 10                	jmp    80493c3 <rio_readlineb+0xc7>
 80493b3:	b8 ff ff ff ff       	mov    $0xffffffff,%eax
 80493b8:	85 c0                	test   %eax,%eax
 80493ba:	74 c6                	je     8049382 <rio_readlineb+0x86>
 80493bc:	b8 ff ff ff ff       	mov    $0xffffffff,%eax
 80493c1:	eb e1                	jmp    80493a4 <rio_readlineb+0xa8>
 80493c3:	e8 c8 f3 ff ff       	call   8048790 <__stack_chk_fail@plt>
 80493c8:	83 c4 2c             	add    $0x2c,%esp
 80493cb:	5b                   	pop    %ebx
 80493cc:	5e                   	pop    %esi
 80493cd:	5f                   	pop    %edi
 80493ce:	5d                   	pop    %ebp
 80493cf:	c3                   	ret    

080493d0 <submitr>:
 80493d0:	55                   	push   %ebp
 80493d1:	57                   	push   %edi
 80493d2:	56                   	push   %esi
 80493d3:	53                   	push   %ebx
 80493d4:	81 ec 60 a0 00 00    	sub    $0xa060,%esp
 80493da:	8b b4 24 74 a0 00 00 	mov    0xa074(%esp),%esi
 80493e1:	8b 84 24 7c a0 00 00 	mov    0xa07c(%esp),%eax
 80493e8:	89 44 24 10          	mov    %eax,0x10(%esp)
 80493ec:	8b 84 24 80 a0 00 00 	mov    0xa080(%esp),%eax
 80493f3:	89 44 24 14          	mov    %eax,0x14(%esp)
 80493f7:	8b 84 24 84 a0 00 00 	mov    0xa084(%esp),%eax
 80493fe:	89 44 24 18          	mov    %eax,0x18(%esp)
 8049402:	8b 9c 24 88 a0 00 00 	mov    0xa088(%esp),%ebx
 8049409:	8b 84 24 8c a0 00 00 	mov    0xa08c(%esp),%eax
 8049410:	89 44 24 1c          	mov    %eax,0x1c(%esp)
 8049414:	65 a1 14 00 00 00    	mov    %gs:0x14,%eax
 804941a:	89 84 24 50 a0 00 00 	mov    %eax,0xa050(%esp)
 8049421:	31 c0                	xor    %eax,%eax
 8049423:	c7 44 24 30 00 00 00 	movl   $0x0,0x30(%esp)
 804942a:	00 
 804942b:	6a 00                	push   $0x0
 804942d:	6a 01                	push   $0x1
 804942f:	6a 02                	push   $0x2
 8049431:	e8 1a f4 ff ff       	call   8048850 <socket@plt>
 8049436:	89 44 24 18          	mov    %eax,0x18(%esp)
 804943a:	83 c4 10             	add    $0x10,%esp
 804943d:	85 c0                	test   %eax,%eax
 804943f:	79 52                	jns    8049493 <submitr+0xc3>
 8049441:	8b 44 24 18          	mov    0x18(%esp),%eax
 8049445:	c7 00 45 72 72 6f    	movl   $0x6f727245,(%eax)
 804944b:	c7 40 04 72 3a 20 43 	movl   $0x43203a72,0x4(%eax)
 8049452:	c7 40 08 6c 69 65 6e 	movl   $0x6e65696c,0x8(%eax)
 8049459:	c7 40 0c 74 20 75 6e 	movl   $0x6e752074,0xc(%eax)
 8049460:	c7 40 10 61 62 6c 65 	movl   $0x656c6261,0x10(%eax)
 8049467:	c7 40 14 20 74 6f 20 	movl   $0x206f7420,0x14(%eax)
 804946e:	c7 40 18 63 72 65 61 	movl   $0x61657263,0x18(%eax)
 8049475:	c7 40 1c 74 65 20 73 	movl   $0x73206574,0x1c(%eax)
 804947c:	c7 40 20 6f 63 6b 65 	movl   $0x656b636f,0x20(%eax)
 8049483:	66 c7 40 24 74 00    	movw   $0x74,0x24(%eax)
 8049489:	b8 ff ff ff ff       	mov    $0xffffffff,%eax
 804948e:	e9 3f 06 00 00       	jmp    8049ad2 <submitr+0x702>
 8049493:	83 ec 0c             	sub    $0xc,%esp
 8049496:	56                   	push   %esi
 8049497:	e8 d4 f3 ff ff       	call   8048870 <gethostbyname@plt>
 804949c:	83 c4 10             	add    $0x10,%esp
 804949f:	85 c0                	test   %eax,%eax
 80494a1:	75 73                	jne    8049516 <submitr+0x146>
 80494a3:	8b 44 24 18          	mov    0x18(%esp),%eax
 80494a7:	c7 00 45 72 72 6f    	movl   $0x6f727245,(%eax)
 80494ad:	c7 40 04 72 3a 20 44 	movl   $0x44203a72,0x4(%eax)
 80494b4:	c7 40 08 4e 53 20 69 	movl   $0x6920534e,0x8(%eax)
 80494bb:	c7 40 0c 73 20 75 6e 	movl   $0x6e752073,0xc(%eax)
 80494c2:	c7 40 10 61 62 6c 65 	movl   $0x656c6261,0x10(%eax)
 80494c9:	c7 40 14 20 74 6f 20 	movl   $0x206f7420,0x14(%eax)
 80494d0:	c7 40 18 72 65 73 6f 	movl   $0x6f736572,0x18(%eax)
 80494d7:	c7 40 1c 6c 76 65 20 	movl   $0x2065766c,0x1c(%eax)
 80494de:	c7 40 20 73 65 72 76 	movl   $0x76726573,0x20(%eax)
 80494e5:	c7 40 24 65 72 20 61 	movl   $0x61207265,0x24(%eax)
 80494ec:	c7 40 28 64 64 72 65 	movl   $0x65726464,0x28(%eax)
 80494f3:	66 c7 40 2c 73 73    	movw   $0x7373,0x2c(%eax)
 80494f9:	c6 40 2e 00          	movb   $0x0,0x2e(%eax)
 80494fd:	83 ec 0c             	sub    $0xc,%esp
 8049500:	ff 74 24 14          	pushl  0x14(%esp)
 8049504:	e8 97 f3 ff ff       	call   80488a0 <close@plt>
 8049509:	83 c4 10             	add    $0x10,%esp
 804950c:	b8 ff ff ff ff       	mov    $0xffffffff,%eax
 8049511:	e9 bc 05 00 00       	jmp    8049ad2 <submitr+0x702>
 8049516:	8d 74 24 30          	lea    0x30(%esp),%esi
 804951a:	c7 44 24 30 00 00 00 	movl   $0x0,0x30(%esp)
 8049521:	00 
 8049522:	c7 44 24 34 00 00 00 	movl   $0x0,0x34(%esp)
 8049529:	00 
 804952a:	c7 44 24 38 00 00 00 	movl   $0x0,0x38(%esp)
 8049531:	00 
 8049532:	c7 44 24 3c 00 00 00 	movl   $0x0,0x3c(%esp)
 8049539:	00 
 804953a:	66 c7 44 24 30 02 00 	movw   $0x2,0x30(%esp)
 8049541:	6a 0c                	push   $0xc
 8049543:	ff 70 0c             	pushl  0xc(%eax)
 8049546:	8b 40 10             	mov    0x10(%eax),%eax
 8049549:	ff 30                	pushl  (%eax)
 804954b:	8d 44 24 40          	lea    0x40(%esp),%eax
 804954f:	50                   	push   %eax
 8049550:	e8 7b f2 ff ff       	call   80487d0 <__memmove_chk@plt>
 8049555:	0f b7 84 24 84 a0 00 	movzwl 0xa084(%esp),%eax
 804955c:	00 
 804955d:	66 c1 c8 08          	ror    $0x8,%ax
 8049561:	66 89 44 24 42       	mov    %ax,0x42(%esp)
 8049566:	83 c4 0c             	add    $0xc,%esp
 8049569:	6a 10                	push   $0x10
 804956b:	56                   	push   %esi
 804956c:	ff 74 24 14          	pushl  0x14(%esp)
 8049570:	e8 1b f3 ff ff       	call   8048890 <connect@plt>
 8049575:	83 c4 10             	add    $0x10,%esp
 8049578:	85 c0                	test   %eax,%eax
 804957a:	79 65                	jns    80495e1 <submitr+0x211>
 804957c:	8b 44 24 18          	mov    0x18(%esp),%eax
 8049580:	c7 00 45 72 72 6f    	movl   $0x6f727245,(%eax)
 8049586:	c7 40 04 72 3a 20 55 	movl   $0x55203a72,0x4(%eax)
 804958d:	c7 40 08 6e 61 62 6c 	movl   $0x6c62616e,0x8(%eax)
 8049594:	c7 40 0c 65 20 74 6f 	movl   $0x6f742065,0xc(%eax)
 804959b:	c7 40 10 20 63 6f 6e 	movl   $0x6e6f6320,0x10(%eax)
 80495a2:	c7 40 14 6e 65 63 74 	movl   $0x7463656e,0x14(%eax)
 80495a9:	c7 40 18 20 74 6f 20 	movl   $0x206f7420,0x18(%eax)
 80495b0:	c7 40 1c 74 68 65 20 	movl   $0x20656874,0x1c(%eax)
 80495b7:	c7 40 20 73 65 72 76 	movl   $0x76726573,0x20(%eax)
 80495be:	66 c7 40 24 65 72    	movw   $0x7265,0x24(%eax)
 80495c4:	c6 40 26 00          	movb   $0x0,0x26(%eax)
 80495c8:	83 ec 0c             	sub    $0xc,%esp
 80495cb:	ff 74 24 14          	pushl  0x14(%esp)
 80495cf:	e8 cc f2 ff ff       	call   80488a0 <close@plt>
 80495d4:	83 c4 10             	add    $0x10,%esp
 80495d7:	b8 ff ff ff ff       	mov    $0xffffffff,%eax
 80495dc:	e9 f1 04 00 00       	jmp    8049ad2 <submitr+0x702>
 80495e1:	be ff ff ff ff       	mov    $0xffffffff,%esi
 80495e6:	b8 00 00 00 00       	mov    $0x0,%eax
 80495eb:	89 f1                	mov    %esi,%ecx
 80495ed:	89 df                	mov    %ebx,%edi
 80495ef:	f2 ae                	repnz scas %es:(%edi),%al
 80495f1:	f7 d1                	not    %ecx
 80495f3:	89 cd                	mov    %ecx,%ebp
 80495f5:	89 f1                	mov    %esi,%ecx
 80495f7:	8b 7c 24 0c          	mov    0xc(%esp),%edi
 80495fb:	f2 ae                	repnz scas %es:(%edi),%al
 80495fd:	89 4c 24 1c          	mov    %ecx,0x1c(%esp)
 8049601:	89 f1                	mov    %esi,%ecx
 8049603:	8b 7c 24 10          	mov    0x10(%esp),%edi
 8049607:	f2 ae                	repnz scas %es:(%edi),%al
 8049609:	89 ca                	mov    %ecx,%edx
 804960b:	f7 d2                	not    %edx
 804960d:	89 f1                	mov    %esi,%ecx
 804960f:	8b 7c 24 14          	mov    0x14(%esp),%edi
 8049613:	f2 ae                	repnz scas %es:(%edi),%al
 8049615:	2b 54 24 1c          	sub    0x1c(%esp),%edx
 8049619:	29 ca                	sub    %ecx,%edx
 804961b:	8d 44 6d fd          	lea    -0x3(%ebp,%ebp,2),%eax
 804961f:	8d 44 02 7b          	lea    0x7b(%edx,%eax,1),%eax
 8049623:	3d 00 20 00 00       	cmp    $0x2000,%eax
 8049628:	76 7e                	jbe    80496a8 <submitr+0x2d8>
 804962a:	8b 44 24 18          	mov    0x18(%esp),%eax
 804962e:	c7 00 45 72 72 6f    	movl   $0x6f727245,(%eax)
 8049634:	c7 40 04 72 3a 20 52 	movl   $0x52203a72,0x4(%eax)
 804963b:	c7 40 08 65 73 75 6c 	movl   $0x6c757365,0x8(%eax)
 8049642:	c7 40 0c 74 20 73 74 	movl   $0x74732074,0xc(%eax)
 8049649:	c7 40 10 72 69 6e 67 	movl   $0x676e6972,0x10(%eax)
 8049650:	c7 40 14 20 74 6f 6f 	movl   $0x6f6f7420,0x14(%eax)
 8049657:	c7 40 18 20 6c 61 72 	movl   $0x72616c20,0x18(%eax)
 804965e:	c7 40 1c 67 65 2e 20 	movl   $0x202e6567,0x1c(%eax)
 8049665:	c7 40 20 49 6e 63 72 	movl   $0x72636e49,0x20(%eax)
 804966c:	c7 40 24 65 61 73 65 	movl   $0x65736165,0x24(%eax)
 8049673:	c7 40 28 20 53 55 42 	movl   $0x42555320,0x28(%eax)
 804967a:	c7 40 2c 4d 49 54 52 	movl   $0x5254494d,0x2c(%eax)
 8049681:	c7 40 30 5f 4d 41 58 	movl   $0x58414d5f,0x30(%eax)
 8049688:	c7 40 34 42 55 46 00 	movl   $0x465542,0x34(%eax)
 804968f:	83 ec 0c             	sub    $0xc,%esp
 8049692:	ff 74 24 14          	pushl  0x14(%esp)
 8049696:	e8 05 f2 ff ff       	call   80488a0 <close@plt>
 804969b:	83 c4 10             	add    $0x10,%esp
 804969e:	b8 ff ff ff ff       	mov    $0xffffffff,%eax
 80496a3:	e9 2a 04 00 00       	jmp    8049ad2 <submitr+0x702>
 80496a8:	8d 94 24 4c 40 00 00 	lea    0x404c(%esp),%edx
 80496af:	b9 00 08 00 00       	mov    $0x800,%ecx
 80496b4:	b8 00 00 00 00       	mov    $0x0,%eax
 80496b9:	89 d7                	mov    %edx,%edi
 80496bb:	f3 ab                	rep stos %eax,%es:(%edi)
 80496bd:	b9 ff ff ff ff       	mov    $0xffffffff,%ecx
 80496c2:	89 df                	mov    %ebx,%edi
 80496c4:	f2 ae                	repnz scas %es:(%edi),%al
 80496c6:	f7 d1                	not    %ecx
 80496c8:	89 ce                	mov    %ecx,%esi
 80496ca:	83 ee 01             	sub    $0x1,%esi
 80496cd:	0f 84 5c 04 00 00    	je     8049b2f <submitr+0x75f>
 80496d3:	89 d5                	mov    %edx,%ebp
 80496d5:	bf d9 ff 00 00       	mov    $0xffd9,%edi
 80496da:	0f b6 13             	movzbl (%ebx),%edx
 80496dd:	8d 4a d6             	lea    -0x2a(%edx),%ecx
 80496e0:	b8 01 00 00 00       	mov    $0x1,%eax
 80496e5:	80 f9 0f             	cmp    $0xf,%cl
 80496e8:	77 0a                	ja     80496f4 <submitr+0x324>
 80496ea:	89 f8                	mov    %edi,%eax
 80496ec:	d3 e8                	shr    %cl,%eax
 80496ee:	83 f0 01             	xor    $0x1,%eax
 80496f1:	83 e0 01             	and    $0x1,%eax
 80496f4:	80 fa 5f             	cmp    $0x5f,%dl
 80496f7:	0f 94 c1             	sete   %cl
 80496fa:	38 c1                	cmp    %al,%cl
 80496fc:	73 0c                	jae    804970a <submitr+0x33a>
 80496fe:	89 d0                	mov    %edx,%eax
 8049700:	83 e0 df             	and    $0xffffffdf,%eax
 8049703:	83 e8 41             	sub    $0x41,%eax
 8049706:	3c 19                	cmp    $0x19,%al
 8049708:	77 08                	ja     8049712 <submitr+0x342>
 804970a:	88 55 00             	mov    %dl,0x0(%ebp)
 804970d:	8d 6d 01             	lea    0x1(%ebp),%ebp
 8049710:	eb 62                	jmp    8049774 <submitr+0x3a4>
 8049712:	80 fa 20             	cmp    $0x20,%dl
 8049715:	75 09                	jne    8049720 <submitr+0x350>
 8049717:	c6 45 00 2b          	movb   $0x2b,0x0(%ebp)
 804971b:	8d 6d 01             	lea    0x1(%ebp),%ebp
 804971e:	eb 54                	jmp    8049774 <submitr+0x3a4>
 8049720:	8d 42 e0             	lea    -0x20(%edx),%eax
 8049723:	3c 5f                	cmp    $0x5f,%al
 8049725:	76 09                	jbe    8049730 <submitr+0x360>
 8049727:	80 fa 09             	cmp    $0x9,%dl
 804972a:	0f 85 bb 03 00 00    	jne    8049aeb <submitr+0x71b>
 8049730:	83 ec 0c             	sub    $0xc,%esp
 8049733:	0f b6 d2             	movzbl %dl,%edx
 8049736:	52                   	push   %edx
 8049737:	68 74 a3 04 08       	push   $0x804a374
 804973c:	6a 08                	push   $0x8
 804973e:	6a 01                	push   $0x1
 8049740:	8d 84 24 68 80 00 00 	lea    0x8068(%esp),%eax
 8049747:	50                   	push   %eax
 8049748:	e8 73 f1 ff ff       	call   80488c0 <__sprintf_chk@plt>
 804974d:	0f b6 84 24 6c 80 00 	movzbl 0x806c(%esp),%eax
 8049754:	00 
 8049755:	88 45 00             	mov    %al,0x0(%ebp)
 8049758:	0f b6 84 24 6d 80 00 	movzbl 0x806d(%esp),%eax
 804975f:	00 
 8049760:	88 45 01             	mov    %al,0x1(%ebp)
 8049763:	0f b6 84 24 6e 80 00 	movzbl 0x806e(%esp),%eax
 804976a:	00 
 804976b:	88 45 02             	mov    %al,0x2(%ebp)
 804976e:	83 c4 20             	add    $0x20,%esp
 8049771:	8d 6d 03             	lea    0x3(%ebp),%ebp
 8049774:	83 c3 01             	add    $0x1,%ebx
 8049777:	83 ee 01             	sub    $0x1,%esi
 804977a:	0f 85 5a ff ff ff    	jne    80496da <submitr+0x30a>
 8049780:	e9 aa 03 00 00       	jmp    8049b2f <submitr+0x75f>
 8049785:	83 ec 04             	sub    $0x4,%esp
 8049788:	53                   	push   %ebx
 8049789:	56                   	push   %esi
 804978a:	55                   	push   %ebp
 804978b:	e8 70 f0 ff ff       	call   8048800 <write@plt>
 8049790:	83 c4 10             	add    $0x10,%esp
 8049793:	85 c0                	test   %eax,%eax
 8049795:	7f 0f                	jg     80497a6 <submitr+0x3d6>
 8049797:	e8 94 f0 ff ff       	call   8048830 <__errno_location@plt>
 804979c:	83 38 04             	cmpl   $0x4,(%eax)
 804979f:	75 0f                	jne    80497b0 <submitr+0x3e0>
 80497a1:	b8 00 00 00 00       	mov    $0x0,%eax
 80497a6:	01 c6                	add    %eax,%esi
 80497a8:	29 c3                	sub    %eax,%ebx
 80497aa:	75 d9                	jne    8049785 <submitr+0x3b5>
 80497ac:	85 ff                	test   %edi,%edi
 80497ae:	79 69                	jns    8049819 <submitr+0x449>
 80497b0:	8b 44 24 18          	mov    0x18(%esp),%eax
 80497b4:	c7 00 45 72 72 6f    	movl   $0x6f727245,(%eax)
 80497ba:	c7 40 04 72 3a 20 43 	movl   $0x43203a72,0x4(%eax)
 80497c1:	c7 40 08 6c 69 65 6e 	movl   $0x6e65696c,0x8(%eax)
 80497c8:	c7 40 0c 74 20 75 6e 	movl   $0x6e752074,0xc(%eax)
 80497cf:	c7 40 10 61 62 6c 65 	movl   $0x656c6261,0x10(%eax)
 80497d6:	c7 40 14 20 74 6f 20 	movl   $0x206f7420,0x14(%eax)
 80497dd:	c7 40 18 77 72 69 74 	movl   $0x74697277,0x18(%eax)
 80497e4:	c7 40 1c 65 20 74 6f 	movl   $0x6f742065,0x1c(%eax)
 80497eb:	c7 40 20 20 74 68 65 	movl   $0x65687420,0x20(%eax)
 80497f2:	c7 40 24 20 73 65 72 	movl   $0x72657320,0x24(%eax)
 80497f9:	c7 40 28 76 65 72 00 	movl   $0x726576,0x28(%eax)
 8049800:	83 ec 0c             	sub    $0xc,%esp
 8049803:	ff 74 24 14          	pushl  0x14(%esp)
 8049807:	e8 94 f0 ff ff       	call   80488a0 <close@plt>
 804980c:	83 c4 10             	add    $0x10,%esp
 804980f:	b8 ff ff ff ff       	mov    $0xffffffff,%eax
 8049814:	e9 b9 02 00 00       	jmp    8049ad2 <submitr+0x702>
 8049819:	8b 44 24 08          	mov    0x8(%esp),%eax
 804981d:	89 44 24 40          	mov    %eax,0x40(%esp)
 8049821:	c7 44 24 44 00 00 00 	movl   $0x0,0x44(%esp)
 8049828:	00 
 8049829:	8d 44 24 4c          	lea    0x4c(%esp),%eax
 804982d:	89 44 24 48          	mov    %eax,0x48(%esp)
 8049831:	b9 00 20 00 00       	mov    $0x2000,%ecx
 8049836:	8d 94 24 4c 20 00 00 	lea    0x204c(%esp),%edx
 804983d:	8d 44 24 40          	lea    0x40(%esp),%eax
 8049841:	e8 b6 fa ff ff       	call   80492fc <rio_readlineb>
 8049846:	85 c0                	test   %eax,%eax
 8049848:	7f 7d                	jg     80498c7 <submitr+0x4f7>
 804984a:	8b 44 24 18          	mov    0x18(%esp),%eax
 804984e:	c7 00 45 72 72 6f    	movl   $0x6f727245,(%eax)
 8049854:	c7 40 04 72 3a 20 43 	movl   $0x43203a72,0x4(%eax)
 804985b:	c7 40 08 6c 69 65 6e 	movl   $0x6e65696c,0x8(%eax)
 8049862:	c7 40 0c 74 20 75 6e 	movl   $0x6e752074,0xc(%eax)
 8049869:	c7 40 10 61 62 6c 65 	movl   $0x656c6261,0x10(%eax)
 8049870:	c7 40 14 20 74 6f 20 	movl   $0x206f7420,0x14(%eax)
 8049877:	c7 40 18 72 65 61 64 	movl   $0x64616572,0x18(%eax)
 804987e:	c7 40 1c 20 66 69 72 	movl   $0x72696620,0x1c(%eax)
 8049885:	c7 40 20 73 74 20 68 	movl   $0x68207473,0x20(%eax)
 804988c:	c7 40 24 65 61 64 65 	movl   $0x65646165,0x24(%eax)
 8049893:	c7 40 28 72 20 66 72 	movl   $0x72662072,0x28(%eax)
 804989a:	c7 40 2c 6f 6d 20 73 	movl   $0x73206d6f,0x2c(%eax)
 80498a1:	c7 40 30 65 72 76 65 	movl   $0x65767265,0x30(%eax)
 80498a8:	66 c7 40 34 72 00    	movw   $0x72,0x34(%eax)
 80498ae:	83 ec 0c             	sub    $0xc,%esp
 80498b1:	ff 74 24 14          	pushl  0x14(%esp)
 80498b5:	e8 e6 ef ff ff       	call   80488a0 <close@plt>
 80498ba:	83 c4 10             	add    $0x10,%esp
 80498bd:	b8 ff ff ff ff       	mov    $0xffffffff,%eax
 80498c2:	e9 0b 02 00 00       	jmp    8049ad2 <submitr+0x702>
 80498c7:	83 ec 0c             	sub    $0xc,%esp
 80498ca:	8d 84 24 58 80 00 00 	lea    0x8058(%esp),%eax
 80498d1:	50                   	push   %eax
 80498d2:	8d 44 24 3c          	lea    0x3c(%esp),%eax
 80498d6:	50                   	push   %eax
 80498d7:	8d 84 24 60 60 00 00 	lea    0x6060(%esp),%eax
 80498de:	50                   	push   %eax
 80498df:	68 7b a3 04 08       	push   $0x804a37b
 80498e4:	8d 84 24 68 20 00 00 	lea    0x2068(%esp),%eax
 80498eb:	50                   	push   %eax
 80498ec:	e8 1f ef ff ff       	call   8048810 <__isoc99_sscanf@plt>
 80498f1:	8b 44 24 4c          	mov    0x4c(%esp),%eax
 80498f5:	83 c4 20             	add    $0x20,%esp
 80498f8:	3d c8 00 00 00       	cmp    $0xc8,%eax
 80498fd:	0f 84 c4 00 00 00    	je     80499c7 <submitr+0x5f7>
 8049903:	83 ec 08             	sub    $0x8,%esp
 8049906:	8d 94 24 54 80 00 00 	lea    0x8054(%esp),%edx
 804990d:	52                   	push   %edx
 804990e:	50                   	push   %eax
 804990f:	68 8c a2 04 08       	push   $0x804a28c
 8049914:	6a ff                	push   $0xffffffff
 8049916:	6a 01                	push   $0x1
 8049918:	ff 74 24 34          	pushl  0x34(%esp)
 804991c:	e8 9f ef ff ff       	call   80488c0 <__sprintf_chk@plt>
 8049921:	83 c4 14             	add    $0x14,%esp
 8049924:	ff 74 24 14          	pushl  0x14(%esp)
 8049928:	e8 73 ef ff ff       	call   80488a0 <close@plt>
 804992d:	83 c4 10             	add    $0x10,%esp
 8049930:	b8 ff ff ff ff       	mov    $0xffffffff,%eax
 8049935:	e9 98 01 00 00       	jmp    8049ad2 <submitr+0x702>
 804993a:	b9 00 20 00 00       	mov    $0x2000,%ecx
 804993f:	8d 94 24 4c 20 00 00 	lea    0x204c(%esp),%edx
 8049946:	8d 44 24 40          	lea    0x40(%esp),%eax
 804994a:	e8 ad f9 ff ff       	call   80492fc <rio_readlineb>
 804994f:	85 c0                	test   %eax,%eax
 8049951:	7f 74                	jg     80499c7 <submitr+0x5f7>
 8049953:	8b 44 24 18          	mov    0x18(%esp),%eax
 8049957:	c7 00 45 72 72 6f    	movl   $0x6f727245,(%eax)
 804995d:	c7 40 04 72 3a 20 43 	movl   $0x43203a72,0x4(%eax)
 8049964:	c7 40 08 6c 69 65 6e 	movl   $0x6e65696c,0x8(%eax)
 804996b:	c7 40 0c 74 20 75 6e 	movl   $0x6e752074,0xc(%eax)
 8049972:	c7 40 10 61 62 6c 65 	movl   $0x656c6261,0x10(%eax)
 8049979:	c7 40 14 20 74 6f 20 	movl   $0x206f7420,0x14(%eax)
 8049980:	c7 40 18 72 65 61 64 	movl   $0x64616572,0x18(%eax)
 8049987:	c7 40 1c 20 68 65 61 	movl   $0x61656820,0x1c(%eax)
 804998e:	c7 40 20 64 65 72 73 	movl   $0x73726564,0x20(%eax)
 8049995:	c7 40 24 20 66 72 6f 	movl   $0x6f726620,0x24(%eax)
 804999c:	c7 40 28 6d 20 73 65 	movl   $0x6573206d,0x28(%eax)
 80499a3:	c7 40 2c 72 76 65 72 	movl   $0x72657672,0x2c(%eax)
 80499aa:	c6 40 30 00          	movb   $0x0,0x30(%eax)
 80499ae:	83 ec 0c             	sub    $0xc,%esp
 80499b1:	ff 74 24 14          	pushl  0x14(%esp)
 80499b5:	e8 e6 ee ff ff       	call   80488a0 <close@plt>
 80499ba:	83 c4 10             	add    $0x10,%esp
 80499bd:	b8 ff ff ff ff       	mov    $0xffffffff,%eax
 80499c2:	e9 0b 01 00 00       	jmp    8049ad2 <submitr+0x702>
 80499c7:	80 bc 24 4c 20 00 00 	cmpb   $0xd,0x204c(%esp)
 80499ce:	0d 
 80499cf:	0f 85 65 ff ff ff    	jne    804993a <submitr+0x56a>
 80499d5:	80 bc 24 4d 20 00 00 	cmpb   $0xa,0x204d(%esp)
 80499dc:	0a 
 80499dd:	0f 85 57 ff ff ff    	jne    804993a <submitr+0x56a>
 80499e3:	80 bc 24 4e 20 00 00 	cmpb   $0x0,0x204e(%esp)
 80499ea:	00 
 80499eb:	0f 85 49 ff ff ff    	jne    804993a <submitr+0x56a>
 80499f1:	b9 00 20 00 00       	mov    $0x2000,%ecx
 80499f6:	8d 94 24 4c 20 00 00 	lea    0x204c(%esp),%edx
 80499fd:	8d 44 24 40          	lea    0x40(%esp),%eax
 8049a01:	e8 f6 f8 ff ff       	call   80492fc <rio_readlineb>
 8049a06:	85 c0                	test   %eax,%eax
 8049a08:	7f 7b                	jg     8049a85 <submitr+0x6b5>
 8049a0a:	8b 44 24 18          	mov    0x18(%esp),%eax
 8049a0e:	c7 00 45 72 72 6f    	movl   $0x6f727245,(%eax)
 8049a14:	c7 40 04 72 3a 20 43 	movl   $0x43203a72,0x4(%eax)
 8049a1b:	c7 40 08 6c 69 65 6e 	movl   $0x6e65696c,0x8(%eax)
 8049a22:	c7 40 0c 74 20 75 6e 	movl   $0x6e752074,0xc(%eax)
 8049a29:	c7 40 10 61 62 6c 65 	movl   $0x656c6261,0x10(%eax)
 8049a30:	c7 40 14 20 74 6f 20 	movl   $0x206f7420,0x14(%eax)
 8049a37:	c7 40 18 72 65 61 64 	movl   $0x64616572,0x18(%eax)
 8049a3e:	c7 40 1c 20 73 74 61 	movl   $0x61747320,0x1c(%eax)
 8049a45:	c7 40 20 74 75 73 20 	movl   $0x20737574,0x20(%eax)
 8049a4c:	c7 40 24 6d 65 73 73 	movl   $0x7373656d,0x24(%eax)
 8049a53:	c7 40 28 61 67 65 20 	movl   $0x20656761,0x28(%eax)
 8049a5a:	c7 40 2c 66 72 6f 6d 	movl   $0x6d6f7266,0x2c(%eax)
 8049a61:	c7 40 30 20 73 65 72 	movl   $0x72657320,0x30(%eax)
 8049a68:	c7 40 34 76 65 72 00 	movl   $0x726576,0x34(%eax)
 8049a6f:	83 ec 0c             	sub    $0xc,%esp
 8049a72:	ff 74 24 14          	pushl  0x14(%esp)
 8049a76:	e8 25 ee ff ff       	call   80488a0 <close@plt>
 8049a7b:	83 c4 10             	add    $0x10,%esp
 8049a7e:	b8 ff ff ff ff       	mov    $0xffffffff,%eax
 8049a83:	eb 4d                	jmp    8049ad2 <submitr+0x702>
 8049a85:	83 ec 08             	sub    $0x8,%esp
 8049a88:	8d 84 24 54 20 00 00 	lea    0x2054(%esp),%eax
 8049a8f:	50                   	push   %eax
 8049a90:	8b 7c 24 24          	mov    0x24(%esp),%edi
 8049a94:	57                   	push   %edi
 8049a95:	e8 06 ed ff ff       	call   80487a0 <strcpy@plt>
 8049a9a:	83 c4 04             	add    $0x4,%esp
 8049a9d:	ff 74 24 14          	pushl  0x14(%esp)
 8049aa1:	e8 fa ed ff ff       	call   80488a0 <close@plt>
 8049aa6:	0f b6 17             	movzbl (%edi),%edx
 8049aa9:	b8 4f 00 00 00       	mov    $0x4f,%eax
 8049aae:	83 c4 10             	add    $0x10,%esp
 8049ab1:	29 d0                	sub    %edx,%eax
 8049ab3:	75 13                	jne    8049ac8 <submitr+0x6f8>
 8049ab5:	0f b6 57 01          	movzbl 0x1(%edi),%edx
 8049ab9:	b8 4b 00 00 00       	mov    $0x4b,%eax
 8049abe:	29 d0                	sub    %edx,%eax
 8049ac0:	75 06                	jne    8049ac8 <submitr+0x6f8>
 8049ac2:	0f b6 47 02          	movzbl 0x2(%edi),%eax
 8049ac6:	f7 d8                	neg    %eax
 8049ac8:	85 c0                	test   %eax,%eax
 8049aca:	0f 95 c0             	setne  %al
 8049acd:	0f b6 c0             	movzbl %al,%eax
 8049ad0:	f7 d8                	neg    %eax
 8049ad2:	8b bc 24 4c a0 00 00 	mov    0xa04c(%esp),%edi
 8049ad9:	65 33 3d 14 00 00 00 	xor    %gs:0x14,%edi
 8049ae0:	0f 84 a9 00 00 00    	je     8049b8f <submitr+0x7bf>
 8049ae6:	e9 9f 00 00 00       	jmp    8049b8a <submitr+0x7ba>
 8049aeb:	a1 bc a2 04 08       	mov    0x804a2bc,%eax
 8049af0:	8b 7c 24 18          	mov    0x18(%esp),%edi
 8049af4:	89 07                	mov    %eax,(%edi)
 8049af6:	a1 fb a2 04 08       	mov    0x804a2fb,%eax
 8049afb:	89 47 3f             	mov    %eax,0x3f(%edi)
 8049afe:	89 f8                	mov    %edi,%eax
 8049b00:	83 c7 04             	add    $0x4,%edi
 8049b03:	83 e7 fc             	and    $0xfffffffc,%edi
 8049b06:	29 f8                	sub    %edi,%eax
 8049b08:	be bc a2 04 08       	mov    $0x804a2bc,%esi
 8049b0d:	29 c6                	sub    %eax,%esi
 8049b0f:	83 c0 43             	add    $0x43,%eax
 8049b12:	c1 e8 02             	shr    $0x2,%eax
 8049b15:	89 c1                	mov    %eax,%ecx
 8049b17:	f3 a5                	rep movsl %ds:(%esi),%es:(%edi)
 8049b19:	83 ec 0c             	sub    $0xc,%esp
 8049b1c:	ff 74 24 14          	pushl  0x14(%esp)
 8049b20:	e8 7b ed ff ff       	call   80488a0 <close@plt>
 8049b25:	83 c4 10             	add    $0x10,%esp
 8049b28:	b8 ff ff ff ff       	mov    $0xffffffff,%eax
 8049b2d:	eb a3                	jmp    8049ad2 <submitr+0x702>
 8049b2f:	8d 84 24 4c 40 00 00 	lea    0x404c(%esp),%eax
 8049b36:	50                   	push   %eax
 8049b37:	ff 74 24 18          	pushl  0x18(%esp)
 8049b3b:	ff 74 24 18          	pushl  0x18(%esp)
 8049b3f:	ff 74 24 18          	pushl  0x18(%esp)
 8049b43:	68 00 a3 04 08       	push   $0x804a300
 8049b48:	68 00 20 00 00       	push   $0x2000
 8049b4d:	6a 01                	push   $0x1
 8049b4f:	8d bc 24 68 20 00 00 	lea    0x2068(%esp),%edi
 8049b56:	57                   	push   %edi
 8049b57:	e8 64 ed ff ff       	call   80488c0 <__sprintf_chk@plt>
 8049b5c:	b8 00 00 00 00       	mov    $0x0,%eax
 8049b61:	b9 ff ff ff ff       	mov    $0xffffffff,%ecx
 8049b66:	f2 ae                	repnz scas %es:(%edi),%al
 8049b68:	f7 d1                	not    %ecx
 8049b6a:	8d 79 ff             	lea    -0x1(%ecx),%edi
 8049b6d:	83 c4 20             	add    $0x20,%esp
 8049b70:	89 fb                	mov    %edi,%ebx
 8049b72:	8d b4 24 4c 20 00 00 	lea    0x204c(%esp),%esi
 8049b79:	8b 6c 24 08          	mov    0x8(%esp),%ebp
 8049b7d:	85 ff                	test   %edi,%edi
 8049b7f:	0f 85 00 fc ff ff    	jne    8049785 <submitr+0x3b5>
 8049b85:	e9 8f fc ff ff       	jmp    8049819 <submitr+0x449>
 8049b8a:	e8 01 ec ff ff       	call   8048790 <__stack_chk_fail@plt>
 8049b8f:	81 c4 5c a0 00 00    	add    $0xa05c,%esp
 8049b95:	5b                   	pop    %ebx
 8049b96:	5e                   	pop    %esi
 8049b97:	5f                   	pop    %edi
 8049b98:	5d                   	pop    %ebp
 8049b99:	c3                   	ret    

08049b9a <init_timeout>:
 8049b9a:	53                   	push   %ebx
 8049b9b:	83 ec 08             	sub    $0x8,%esp
 8049b9e:	8b 5c 24 10          	mov    0x10(%esp),%ebx
 8049ba2:	85 db                	test   %ebx,%ebx
 8049ba4:	74 24                	je     8049bca <init_timeout+0x30>
 8049ba6:	83 ec 08             	sub    $0x8,%esp
 8049ba9:	68 d9 92 04 08       	push   $0x80492d9
 8049bae:	6a 0e                	push   $0xe
 8049bb0:	e8 ab eb ff ff       	call   8048760 <signal@plt>
 8049bb5:	85 db                	test   %ebx,%ebx
 8049bb7:	b8 00 00 00 00       	mov    $0x0,%eax
 8049bbc:	0f 48 d8             	cmovs  %eax,%ebx
 8049bbf:	89 1c 24             	mov    %ebx,(%esp)
 8049bc2:	e8 b9 eb ff ff       	call   8048780 <alarm@plt>
 8049bc7:	83 c4 10             	add    $0x10,%esp
 8049bca:	83 c4 08             	add    $0x8,%esp
 8049bcd:	5b                   	pop    %ebx
 8049bce:	c3                   	ret    

08049bcf <init_driver>:
 8049bcf:	57                   	push   %edi
 8049bd0:	56                   	push   %esi
 8049bd1:	53                   	push   %ebx
 8049bd2:	83 ec 28             	sub    $0x28,%esp
 8049bd5:	8b 74 24 38          	mov    0x38(%esp),%esi
 8049bd9:	65 a1 14 00 00 00    	mov    %gs:0x14,%eax
 8049bdf:	89 44 24 24          	mov    %eax,0x24(%esp)
 8049be3:	31 c0                	xor    %eax,%eax
 8049be5:	6a 01                	push   $0x1
 8049be7:	6a 0d                	push   $0xd
 8049be9:	e8 72 eb ff ff       	call   8048760 <signal@plt>
 8049bee:	83 c4 08             	add    $0x8,%esp
 8049bf1:	6a 01                	push   $0x1
 8049bf3:	6a 1d                	push   $0x1d
 8049bf5:	e8 66 eb ff ff       	call   8048760 <signal@plt>
 8049bfa:	83 c4 08             	add    $0x8,%esp
 8049bfd:	6a 01                	push   $0x1
 8049bff:	6a 1d                	push   $0x1d
 8049c01:	e8 5a eb ff ff       	call   8048760 <signal@plt>
 8049c06:	83 c4 0c             	add    $0xc,%esp
 8049c09:	6a 00                	push   $0x0
 8049c0b:	6a 01                	push   $0x1
 8049c0d:	6a 02                	push   $0x2
 8049c0f:	e8 3c ec ff ff       	call   8048850 <socket@plt>
 8049c14:	83 c4 10             	add    $0x10,%esp
 8049c17:	85 c0                	test   %eax,%eax
 8049c19:	79 4e                	jns    8049c69 <init_driver+0x9a>
 8049c1b:	c7 06 45 72 72 6f    	movl   $0x6f727245,(%esi)
 8049c21:	c7 46 04 72 3a 20 43 	movl   $0x43203a72,0x4(%esi)
 8049c28:	c7 46 08 6c 69 65 6e 	movl   $0x6e65696c,0x8(%esi)
 8049c2f:	c7 46 0c 74 20 75 6e 	movl   $0x6e752074,0xc(%esi)
 8049c36:	c7 46 10 61 62 6c 65 	movl   $0x656c6261,0x10(%esi)
 8049c3d:	c7 46 14 20 74 6f 20 	movl   $0x206f7420,0x14(%esi)
 8049c44:	c7 46 18 63 72 65 61 	movl   $0x61657263,0x18(%esi)
 8049c4b:	c7 46 1c 74 65 20 73 	movl   $0x73206574,0x1c(%esi)
 8049c52:	c7 46 20 6f 63 6b 65 	movl   $0x656b636f,0x20(%esi)
 8049c59:	66 c7 46 24 74 00    	movw   $0x74,0x24(%esi)
 8049c5f:	b8 ff ff ff ff       	mov    $0xffffffff,%eax
 8049c64:	e9 1f 01 00 00       	jmp    8049d88 <init_driver+0x1b9>
 8049c69:	89 c3                	mov    %eax,%ebx
 8049c6b:	83 ec 0c             	sub    $0xc,%esp
 8049c6e:	68 8c a3 04 08       	push   $0x804a38c
 8049c73:	e8 f8 eb ff ff       	call   8048870 <gethostbyname@plt>
 8049c78:	83 c4 10             	add    $0x10,%esp
 8049c7b:	85 c0                	test   %eax,%eax
 8049c7d:	75 6c                	jne    8049ceb <init_driver+0x11c>
 8049c7f:	c7 06 45 72 72 6f    	movl   $0x6f727245,(%esi)
 8049c85:	c7 46 04 72 3a 20 44 	movl   $0x44203a72,0x4(%esi)
 8049c8c:	c7 46 08 4e 53 20 69 	movl   $0x6920534e,0x8(%esi)
 8049c93:	c7 46 0c 73 20 75 6e 	movl   $0x6e752073,0xc(%esi)
 8049c9a:	c7 46 10 61 62 6c 65 	movl   $0x656c6261,0x10(%esi)
 8049ca1:	c7 46 14 20 74 6f 20 	movl   $0x206f7420,0x14(%esi)
 8049ca8:	c7 46 18 72 65 73 6f 	movl   $0x6f736572,0x18(%esi)
 8049caf:	c7 46 1c 6c 76 65 20 	movl   $0x2065766c,0x1c(%esi)
 8049cb6:	c7 46 20 73 65 72 76 	movl   $0x76726573,0x20(%esi)
 8049cbd:	c7 46 24 65 72 20 61 	movl   $0x61207265,0x24(%esi)
 8049cc4:	c7 46 28 64 64 72 65 	movl   $0x65726464,0x28(%esi)
 8049ccb:	66 c7 46 2c 73 73    	movw   $0x7373,0x2c(%esi)
 8049cd1:	c6 46 2e 00          	movb   $0x0,0x2e(%esi)
 8049cd5:	83 ec 0c             	sub    $0xc,%esp
 8049cd8:	53                   	push   %ebx
 8049cd9:	e8 c2 eb ff ff       	call   80488a0 <close@plt>
 8049cde:	83 c4 10             	add    $0x10,%esp
 8049ce1:	b8 ff ff ff ff       	mov    $0xffffffff,%eax
 8049ce6:	e9 9d 00 00 00       	jmp    8049d88 <init_driver+0x1b9>
 8049ceb:	8d 7c 24 0c          	lea    0xc(%esp),%edi
 8049cef:	c7 44 24 0c 00 00 00 	movl   $0x0,0xc(%esp)
 8049cf6:	00 
 8049cf7:	c7 44 24 10 00 00 00 	movl   $0x0,0x10(%esp)
 8049cfe:	00 
 8049cff:	c7 44 24 14 00 00 00 	movl   $0x0,0x14(%esp)
 8049d06:	00 
 8049d07:	c7 44 24 18 00 00 00 	movl   $0x0,0x18(%esp)
 8049d0e:	00 
 8049d0f:	66 c7 44 24 0c 02 00 	movw   $0x2,0xc(%esp)
 8049d16:	6a 0c                	push   $0xc
 8049d18:	ff 70 0c             	pushl  0xc(%eax)
 8049d1b:	8b 40 10             	mov    0x10(%eax),%eax
 8049d1e:	ff 30                	pushl  (%eax)
 8049d20:	8d 44 24 1c          	lea    0x1c(%esp),%eax
 8049d24:	50                   	push   %eax
 8049d25:	e8 a6 ea ff ff       	call   80487d0 <__memmove_chk@plt>
 8049d2a:	66 c7 44 24 1e 3b 6e 	movw   $0x6e3b,0x1e(%esp)
 8049d31:	83 c4 0c             	add    $0xc,%esp
 8049d34:	6a 10                	push   $0x10
 8049d36:	57                   	push   %edi
 8049d37:	53                   	push   %ebx
 8049d38:	e8 53 eb ff ff       	call   8048890 <connect@plt>
 8049d3d:	83 c4 10             	add    $0x10,%esp
 8049d40:	85 c0                	test   %eax,%eax
 8049d42:	79 2a                	jns    8049d6e <init_driver+0x19f>
 8049d44:	83 ec 0c             	sub    $0xc,%esp
 8049d47:	68 8c a3 04 08       	push   $0x804a38c
 8049d4c:	68 4c a3 04 08       	push   $0x804a34c
 8049d51:	6a ff                	push   $0xffffffff
 8049d53:	6a 01                	push   $0x1
 8049d55:	56                   	push   %esi
 8049d56:	e8 65 eb ff ff       	call   80488c0 <__sprintf_chk@plt>
 8049d5b:	83 c4 14             	add    $0x14,%esp
 8049d5e:	53                   	push   %ebx
 8049d5f:	e8 3c eb ff ff       	call   80488a0 <close@plt>
 8049d64:	83 c4 10             	add    $0x10,%esp
 8049d67:	b8 ff ff ff ff       	mov    $0xffffffff,%eax
 8049d6c:	eb 1a                	jmp    8049d88 <init_driver+0x1b9>
 8049d6e:	83 ec 0c             	sub    $0xc,%esp
 8049d71:	53                   	push   %ebx
 8049d72:	e8 29 eb ff ff       	call   80488a0 <close@plt>
 8049d77:	66 c7 06 4f 4b       	movw   $0x4b4f,(%esi)
 8049d7c:	c6 46 02 00          	movb   $0x0,0x2(%esi)
 8049d80:	83 c4 10             	add    $0x10,%esp
 8049d83:	b8 00 00 00 00       	mov    $0x0,%eax
 8049d88:	8b 54 24 1c          	mov    0x1c(%esp),%edx
 8049d8c:	65 33 15 14 00 00 00 	xor    %gs:0x14,%edx
 8049d93:	74 05                	je     8049d9a <init_driver+0x1cb>
 8049d95:	e8 f6 e9 ff ff       	call   8048790 <__stack_chk_fail@plt>
 8049d9a:	83 c4 20             	add    $0x20,%esp
 8049d9d:	5b                   	pop    %ebx
 8049d9e:	5e                   	pop    %esi
 8049d9f:	5f                   	pop    %edi
 8049da0:	c3                   	ret    

08049da1 <driver_post>:
 8049da1:	53                   	push   %ebx
 8049da2:	83 ec 08             	sub    $0x8,%esp
 8049da5:	8b 44 24 10          	mov    0x10(%esp),%eax
 8049da9:	8b 5c 24 1c          	mov    0x1c(%esp),%ebx
 8049dad:	83 7c 24 18 00       	cmpl   $0x0,0x18(%esp)
 8049db2:	74 26                	je     8049dda <driver_post+0x39>
 8049db4:	83 ec 04             	sub    $0x4,%esp
 8049db7:	ff 74 24 18          	pushl  0x18(%esp)
 8049dbb:	68 9a a3 04 08       	push   $0x804a39a
 8049dc0:	6a 01                	push   $0x1
 8049dc2:	e8 79 ea ff ff       	call   8048840 <__printf_chk@plt>
 8049dc7:	66 c7 03 4f 4b       	movw   $0x4b4f,(%ebx)
 8049dcc:	c6 43 02 00          	movb   $0x0,0x2(%ebx)
 8049dd0:	83 c4 10             	add    $0x10,%esp
 8049dd3:	b8 00 00 00 00       	mov    $0x0,%eax
 8049dd8:	eb 3e                	jmp    8049e18 <driver_post+0x77>
 8049dda:	85 c0                	test   %eax,%eax
 8049ddc:	74 2c                	je     8049e0a <driver_post+0x69>
 8049dde:	80 38 00             	cmpb   $0x0,(%eax)
 8049de1:	74 27                	je     8049e0a <driver_post+0x69>
 8049de3:	83 ec 04             	sub    $0x4,%esp
 8049de6:	53                   	push   %ebx
 8049de7:	ff 74 24 1c          	pushl  0x1c(%esp)
 8049deb:	68 b1 a3 04 08       	push   $0x804a3b1
 8049df0:	50                   	push   %eax
 8049df1:	68 b9 a3 04 08       	push   $0x804a3b9
 8049df6:	68 6e 3b 00 00       	push   $0x3b6e
 8049dfb:	68 8c a3 04 08       	push   $0x804a38c
 8049e00:	e8 cb f5 ff ff       	call   80493d0 <submitr>
 8049e05:	83 c4 20             	add    $0x20,%esp
 8049e08:	eb 0e                	jmp    8049e18 <driver_post+0x77>
 8049e0a:	66 c7 03 4f 4b       	movw   $0x4b4f,(%ebx)
 8049e0f:	c6 43 02 00          	movb   $0x0,0x2(%ebx)
 8049e13:	b8 00 00 00 00       	mov    $0x0,%eax
 8049e18:	83 c4 08             	add    $0x8,%esp
 8049e1b:	5b                   	pop    %ebx
 8049e1c:	c3                   	ret    
 8049e1d:	66 90                	xchg   %ax,%ax
 8049e1f:	90                   	nop

08049e20 <__libc_csu_init>:
 8049e20:	55                   	push   %ebp
 8049e21:	57                   	push   %edi
 8049e22:	56                   	push   %esi
 8049e23:	53                   	push   %ebx
 8049e24:	e8 e7 ea ff ff       	call   8048910 <__x86.get_pc_thunk.bx>
 8049e29:	81 c3 d7 21 00 00    	add    $0x21d7,%ebx
 8049e2f:	83 ec 0c             	sub    $0xc,%esp
 8049e32:	8b 6c 24 20          	mov    0x20(%esp),%ebp
 8049e36:	8d b3 0c ff ff ff    	lea    -0xf4(%ebx),%esi
 8049e3c:	e8 b3 e8 ff ff       	call   80486f4 <_init>
 8049e41:	8d 83 08 ff ff ff    	lea    -0xf8(%ebx),%eax
 8049e47:	29 c6                	sub    %eax,%esi
 8049e49:	c1 fe 02             	sar    $0x2,%esi
 8049e4c:	85 f6                	test   %esi,%esi
 8049e4e:	74 25                	je     8049e75 <__libc_csu_init+0x55>
 8049e50:	31 ff                	xor    %edi,%edi
 8049e52:	8d b6 00 00 00 00    	lea    0x0(%esi),%esi
 8049e58:	83 ec 04             	sub    $0x4,%esp
 8049e5b:	ff 74 24 2c          	pushl  0x2c(%esp)
 8049e5f:	ff 74 24 2c          	pushl  0x2c(%esp)
 8049e63:	55                   	push   %ebp
 8049e64:	ff 94 bb 08 ff ff ff 	call   *-0xf8(%ebx,%edi,4)
 8049e6b:	83 c7 01             	add    $0x1,%edi
 8049e6e:	83 c4 10             	add    $0x10,%esp
 8049e71:	39 f7                	cmp    %esi,%edi
 8049e73:	75 e3                	jne    8049e58 <__libc_csu_init+0x38>
 8049e75:	83 c4 0c             	add    $0xc,%esp
 8049e78:	5b                   	pop    %ebx
 8049e79:	5e                   	pop    %esi
 8049e7a:	5f                   	pop    %edi
 8049e7b:	5d                   	pop    %ebp
 8049e7c:	c3                   	ret    
 8049e7d:	8d 76 00             	lea    0x0(%esi),%esi

08049e80 <__libc_csu_fini>:
 8049e80:	f3 c3                	repz ret 

Disassembly of section .fini:

08049e84 <_fini>:
 8049e84:	53                   	push   %ebx
 8049e85:	83 ec 08             	sub    $0x8,%esp
 8049e88:	e8 83 ea ff ff       	call   8048910 <__x86.get_pc_thunk.bx>
 8049e8d:	81 c3 73 21 00 00    	add    $0x2173,%ebx
 8049e93:	83 c4 08             	add    $0x8,%esp
 8049e96:	5b                   	pop    %ebx
 8049e97:	c3                   	ret    
